
BUILD\mbed_blinky.elf:     file format elf32-littlearm
BUILD\mbed_blinky.elf
architecture: arm, flags 0x00000112:
EXEC_P, HAS_SYMS, D_PAGED
start address 0x0000064d

Program Header:
0x70000001 off    0x00011a18 vaddr 0x00009a18 paddr 0x00009a18 align 2**2
         filesz 0x000001b0 memsz 0x000001b0 flags r--
    LOAD off    0x00008000 vaddr 0x00000000 paddr 0x00000000 align 2**15
         filesz 0x00009bc8 memsz 0x00009bc8 flags r-x
    LOAD off    0x000180c8 vaddr 0x100000c8 paddr 0x00009bc8 align 2**15
         filesz 0x000008d4 memsz 0x00001354 flags rw-
   STACK off    0x00000000 vaddr 0x00000000 paddr 0x00000000 align 2**4
         filesz 0x00000000 memsz 0x00000000 flags rwx
private flags = 5000202: [Version5 EABI] [soft-float ABI] [has entry point]

Sections:
Idx Name          Size      VMA       LMA       File off  Algn
  0 .text         00009944  00000000  00000000  00008000  2**3
                  CONTENTS, ALLOC, LOAD, READONLY, CODE
  1 .ARM.extab    000000d4  00009944  00009944  00011944  2**2
                  CONTENTS, ALLOC, LOAD, READONLY, DATA
  2 .ARM.exidx    000001b0  00009a18  00009a18  00011a18  2**2
                  CONTENTS, ALLOC, LOAD, READONLY, DATA
  3 .data         000008c4  100000c8  00009bc8  000180c8  2**3
                  CONTENTS, ALLOC, LOAD, DATA
  4 .got          00000004  1000098c  0000a48c  0001898c  2**2
                  CONTENTS, ALLOC, LOAD, DATA
  5 .got.plt      0000000c  10000990  0000a490  00018990  2**2
                  CONTENTS, ALLOC, LOAD, DATA
  6 .bss          00000a7c  100009a0  0000a4a0  0001899c  2**3
                  ALLOC
  7 .heap         00000800  10001420  10001420  000189a0  2**3
                  CONTENTS, READONLY
  8 .stack_dummy  00000c00  10001420  10001420  000191a0  2**3
                  CONTENTS, READONLY
  9 .ARM.attributes 0000002d  00000000  00000000  00019da0  2**0
                  CONTENTS, READONLY
 10 .comment      000000fc  00000000  00000000  00019dcd  2**0
                  CONTENTS, READONLY
 11 .debug_frame  00001148  00000000  00000000  00019ecc  2**2
                  CONTENTS, READONLY, DEBUGGING
 12 .stabstr      00000076  00000000  00000000  0001b014  2**0
                  CONTENTS, READONLY, DEBUGGING
SYMBOL TABLE:
00000000 l    d  .text	00000000 .text
00009944 l    d  .ARM.extab	00000000 .ARM.extab
00009a18 l    d  .ARM.exidx	00000000 .ARM.exidx
100000c8 l    d  .data	00000000 .data
1000098c l    d  .got	00000000 .got
10000990 l    d  .got.plt	00000000 .got.plt
100009a0 l    d  .bss	00000000 .bss
10001420 l    d  .heap	00000000 .heap
10001420 l    d  .stack_dummy	00000000 .stack_dummy
00000000 l    d  .ARM.attributes	00000000 .ARM.attributes
00000000 l    d  .comment	00000000 .comment
00000000 l    d  .debug_frame	00000000 .debug_frame
00000000 l    d  .stabstr	00000000 .stabstr
00000000 l    df *ABS*	00000000 ../mbed/TARGET_LPC1768/TOOLCHAIN_GCC_ARM/startup_LPC17xx.o
00000c00 l       *ABS*	00000000 Stack_Size
00000800 l       *ABS*	00000000 Heap_Size
00000000 l    df *ABS*	00000000 crtstuff.c
00009908 l     O .text	00000000 __EH_FRAME_BEGIN__
000000cc l     F .text	00000000 __do_global_dtors_aux
100009a0 l       .bss	00000000 completed.8122
10000988 l     O .data	00000000 __do_global_dtors_aux_fini_array_entry
000000f0 l     F .text	00000000 frame_dummy
100009a4 l       .bss	00000000 object.8127
10000980 l     O .data	00000000 __frame_dummy_init_array_entry
00000000 l    df *ABS*	00000000 c:/arm_gcc/4.9/bin/../lib/gcc/arm-none-eabi/4.9.3/../../../../arm-none-eabi/lib/armv7-m/crt0.o
00000000 l    df *ABS*	00000000 main.cpp
0000019c l     F .text	00000048 gpio_write
000002e0 l     F .text	00000030 _Z41__static_initialization_and_destruction_0ii
00000310 l     F .text	0000000e _GLOBAL__sub_I_myled
00000000 l    df *ABS*	00000000 simple.c
00000000 l    df *ABS*	00000000 board.c
00000000 l    df *ABS*	00000000 cmsis_nvic.c
00000000 l    df *ABS*	00000000 retarget.cpp
0000047c l     F .text	00000018 _ZL11init_serialv.part.0
100009d4 l     O .bss	00000100 _ZL11filehandles
100000cc l     O .data	00000004 _ZZ5_sbrkE4heap
00000000 l    df *ABS*	00000000 system_LPC17xx.c
00000000 l    df *ABS*	00000000 serial_api.c
000007ac l     F .text	000000cc serial_irq_set_internal
00009148 l     O .text	00000024 PinMap_UART_RTS
0000916c l     O .text	00000010 CSWTCH.24
0000917c l     O .text	0000006c PinMap_UART_RX
10000ad8 l     O .bss	00000004 irq_handler
000093b8 l     O .text	0000006c PinMap_UART_TX
00009424 l     O .text	00000024 PinMap_UART_CTS
10000adc l     O .bss	000000e0 uart_data
00000000 l    df *ABS*	00000000 assert.c
00000000 l    df *ABS*	00000000 error.c
00000000 l    df *ABS*	00000000 gpio.c
00000000 l    df *ABS*	00000000 mbed_interface.c
00000000 l    df *ABS*	00000000 pinmap_common.c
00000000 l    df *ABS*	00000000 semihost_api.c
00000000 l    df *ABS*	00000000 wait_api.c
00000000 l    df *ABS*	00000000 gpio_api.c
00000000 l    df *ABS*	00000000 pinmap.c
00000000 l    df *ABS*	00000000 us_ticker.c
00000000 l    df *ABS*	00000000 us_ticker_api.c
000095c4 l     O .text	00000014 us_interface
10000bc0 l     O .bss	00000008 events
000095d8 l     O .text	00000008 us_data
00000000 l    df *ABS*	00000000 ticker_api.c
00000000 l    df *ABS*	00000000 del_op.cc
00000000 l    df *ABS*	00000000 eh_exception.cc
00000000 l    df *ABS*	00000000 eh_alloc.cc
10000bc8 l     O .bss	00000004 _ZL14emergency_used
10000bd0 l     O .bss	00000800 _ZL16emergency_buffer
00000000 l    df *ABS*	00000000 class_type_info.cc
00000000 l    df *ABS*	00000000 si_class_type_info.cc
00000000 l    df *ABS*	00000000 eh_throw.cc
0000178c l     F .text	00000044 _ZL23__gxx_exception_cleanup19_Unwind_Reason_CodeP21_Unwind_Control_Block
00000000 l    df *ABS*	00000000 eh_globals.cc
100013d0 l     O .bss	0000000c _ZL10eh_globals
00000000 l    df *ABS*	00000000 eh_terminate.cc
00000000 l    df *ABS*	00000000 tinfo.cc
00000000 l    df *ABS*	00000000 eh_arm.cc
00000000 l    df *ABS*	00000000 eh_call.cc
00001b10 l     F .text	0000003a _ZN10__cxxabiv1L24__is_gxx_exception_classEPc
00000000 l    df *ABS*	00000000 eh_catch.cc
00000000 l    df *ABS*	00000000 eh_personality.cc
00001d60 l     F .text	00000030 _ZL12read_sleb128PKhPl
00001d90 l     F .text	000000a6 _ZL28read_encoded_value_with_basehjPKhPj
00001e38 l     F .text	0000004c _ZL21base_of_encoded_valuehP15_Unwind_Context
00001e84 l     F .text	00000094 _ZL17parse_lsda_headerP15_Unwind_ContextPKhP16lsda_header_info
00000000 l    df *ABS*	00000000 abort.c
00000000 l    df *ABS*	00000000 abs.c
00000000 l    df *ABS*	00000000 errno.c
00000000 l    df *ABS*	00000000 exit.c
00000000 l    df *ABS*	00000000 fflush.c
00000000 l    df *ABS*	00000000 findfp.c
00002524 l     F .text	000000f0 __sinit.part.1
00000000 l    df *ABS*	00000000 fprintf.c
00000000 l    df *ABS*	00000000 mallocr.c
00000000 l    df *ABS*	00000000 fwalk.c
00000000 l    df *ABS*	00000000 init.c
00000000 l    df *ABS*	00000000 malloc.c
00000000 l    df *ABS*	00000000 mallocr.c
00000000 l    df *ABS*	00000000 memchr.c
00000000 l    df *ABS*	00000000 lib_a-memcpy.o
00000000 l    df *ABS*	00000000 memset.c
00000000 l    df *ABS*	00000000 mlock.c
00000000 l    df *ABS*	00000000 printf.c
00000000 l    df *ABS*	00000000 sbrkr.c
00000000 l    df *ABS*	00000000 signal.c
00000000 l    df *ABS*	00000000 signalr.c
00000000 l    df *ABS*	00000000 stdio.c
00000000 l    df *ABS*	00000000 lib_a-strcmp.o
00000000 l    df *ABS*	00000000 strlen.c
00000000 l    df *ABS*	00000000 vfprintf.c
00004868 l     F .text	0000007a __sbprintf
00009788 l     O .text	00000010 zeroes.6926
000097dc l     O .text	00000010 blanks.6925
00000000 l    df *ABS*	00000000 writer.c
00000000 l    df *ABS*	00000000 wsetup.c
00000000 l    df *ABS*	00000000 __call_atexit.c
000049d0 l     F .text	00000014 register_fini
00000000 l    df *ABS*	00000000 atexit.c
00000000 l    df *ABS*	00000000 closer.c
00000000 l    df *ABS*	00000000 dtoa.c
00004ae8 l     F .text	0000012e quorem
00000000 l    df *ABS*	00000000 fclose.c
00000000 l    df *ABS*	00000000 fini.c
00000000 l    df *ABS*	00000000 locale.c
1000091c l     O .data	00000038 lconv
10000954 l     O .data	00000020 lc_ctype_charset
00000000 l    df *ABS*	00000000 lseekr.c
00000000 l    df *ABS*	00000000 makebuf.c
00000000 l    df *ABS*	00000000 mprec.c
000098d0 l     O .text	0000000c p05.5302
00000000 l    df *ABS*	00000000 readr.c
00000000 l    df *ABS*	00000000 s_fpclassify.c
00000000 l    df *ABS*	00000000 vfprintf.c
0000630c l     F .text	00000078 __sprint_r.part.0
00000000 l    df *ABS*	00000000 __atexit.c
00000000 l    df *ABS*	00000000 mallocr.c
00000000 l    df *ABS*	00000000 fputwc.c
00000000 l    df *ABS*	00000000 fstatr.c
00000000 l    df *ABS*	00000000 fvwrite.c
00000000 l    df *ABS*	00000000 isattyr.c
00000000 l    df *ABS*	00000000 memmove.c
00000000 l    df *ABS*	00000000 mallocr.c
00000000 l    df *ABS*	00000000 wbuf.c
00000000 l    df *ABS*	00000000 wcrtomb.c
00000000 l    df *ABS*	00000000 wctomb_r.c
00000000 l    df *ABS*	00000000 _arm_addsubdf3.o
00000000 l    df *ABS*	00000000 _arm_muldivdf3.o
00000000 l    df *ABS*	00000000 _arm_cmpdf2.o
00000000 l    df *ABS*	00000000 _arm_fixdfsi.o
00000000 l    df *ABS*	00000000 _arm_muldivsf3.o
00000000 l    df *ABS*	00000000 _arm_fixsfsi.o
00000000 l    df *ABS*	00000000 _aeabi_uldivmod.o
00000000 l    df *ABS*	00000000 bpabi.c
00000000 l    df *ABS*	00000000 unwind-arm.c
00007b10 l     F .text	00000012 selfrel_offset31
00007b24 l     F .text	0000007a search_EIT_table
00007ba0 l     F .text	00000028 __gnu_unwind_get_pr_addr
00007bc8 l     F .text	000000a4 get_eit_entry
00007c6c l     F .text	00000058 restore_non_core_regs
00007cc4 l     F .text	0000000c _Unwind_decode_typeinfo_ptr.isra.0
00007cd0 l     F .text	00000004 __gnu_unwind_24bit.isra.1
00007cd4 l     F .text	00000002 _Unwind_DebugHook
00007cd8 l     F .text	0000003e unwind_phase2
00007d18 l     F .text	000000d8 unwind_phase2_forced
00007f04 l     F .text	0000001a _Unwind_GetGR
00007f54 l     F .text	0000001c _Unwind_SetGR
00007fe0 l     F .text	000002d4 __gnu_unwind_pr_common
00000000 l    df *ABS*	00000000 libunwind.o
00000000 l    df *ABS*	00000000 pr-support.c
00008710 l     F .text	00000038 next_unwind_byte
00008748 l     F .text	0000001a _Unwind_GetGR.constprop.0
00008764 l     F .text	00000002 unwind_UCB_from_context
00000000 l    df *ABS*	00000000 _dvmd_tls.o
00000000 l    df *ABS*	00000000 libgcc2.c
00000000 l    df *ABS*	00000000 libgcc2.c
00000000 l    df *ABS*	00000000 getpid.c
00000000 l    df *ABS*	00000000 kill.c
00000000 l    df *ABS*	00000000 c:/arm_gcc/4.9/bin/../lib/gcc/arm-none-eabi/4.9.3/armv7-m/crti.o
00000000 l    df *ABS*	00000000 c:/arm_gcc/4.9/bin/../lib/gcc/arm-none-eabi/4.9.3/armv7-m/crtn.o
00000000 l    df *ABS*	00000000 impure.c
100000e0 l     O .data	00000428 impure_data
00000000 l    df *ABS*	00000000 crtstuff.c
00009940 l     O .text	00000000 __FRAME_END__
00000000 l    df *ABS*	00000000 eh_term_handler.cc
00000000 l    df *ABS*	00000000 eh_unex_handler.cc
00000000 l    df *ABS*	00000000 reent.c
00000000 l    df *ABS*	00000000 
10000990 l     O .got.plt	00000000 _GLOBAL_OFFSET_TABLE_
0000023c  w    F .text	0000001a _ZN4mbed10DigitalOutaSEi
00001548 g     F .text	00000030 __cxa_free_exception
000086c8 g     F .text	00000022 .hidden ___Unwind_ForcedUnwind
00007df4 g     F .text	0000005e .hidden __gnu_Unwind_RaiseException
00000748 g     F .text	00000064 uart2_irq
00001950 g     F .text	00000004 _ZNKSt9type_info15__is_function_pEv
00001914 g     F .text	00000014 _ZSt10unexpectedv
10001420 g       .heap	00000800 __HeapBase
000068bc g     F .text	00000024 _isatty_r
00007708 g     F .text	00000012 .hidden __aeabi_dcmple
2007c000 g       .ARM.attributes	00000000 Image$$RW_IRAM2$$Base
2007c000 g       .ARM.attributes	00000000 Image$$RW_IRAM2$$ZI$$Limit
00007ae0 g     F .text	00000030 .hidden __gnu_uldivmod_helper
00008fac g     F .text	00000010 _getpid
0000068e  w    F .text	00000002 TIMER2_IRQHandler
00007644 g     F .text	0000007a .hidden __cmpdf2
00005b88 g     F .text	00000028 _lseek_r
00000688  w    F .text	00000002 DebugMon_Handler
0000068e  w    F .text	00000002 RIT_IRQHandler
00007644 g     F .text	0000007a .hidden __eqdf2
00008a90 g     F .text	000002aa .hidden __divdi3
00001850 g     F .text	00000070 __cxa_rethrow
100000c8 g       .data	00000000 __data_start__
000071b4 g     F .text	0000005a .hidden __floatdidf
0000068e  w    F .text	00000002 I2C0_IRQHandler
00000440 g     F .text	0000003c NVIC_SetVector
00003140 g     F .text	00000028 _kill_r
0000308c g     F .text	00000028 printf
00001980 g     F .text	00000000 __cxa_end_cleanup
00006e30 g     F .text	00000054 _wcrtomb_r
000031c8 g     F .text	00000020 __sseek
00002614 g     F .text	0000000a __sinit
00006d88 g     F .text	000000a8 __swbuf_r
0000067e  w    F .text	00000002 HardFault_Handler
000010a4 g     F .text	00000044 gpio_init_out
00001670 g     F .text	00000014 _ZN10__cxxabiv120__si_class_type_infoD2Ev
00009740 g     O .text	00000025 _ZTSN10__cxxabiv120__si_class_type_infoE
00003088 g     F .text	00000002 __malloc_unlock
000078fc g     F .text	00000136 .hidden __divsf3
0000068c  w    F .text	00000002 SysTick_Handler
0000068e  w    F .text	00000002 USBActivity_IRQHandler
0000068e  w    F .text	00000002 PWM1_IRQHandler
000068e0 g     F .text	000000c6 memmove
00008584 g     F .text	00000000 .hidden __gnu_Unwind_Save_VFP
000086a4 g     F .text	00000022 .hidden _Unwind_Resume_or_Rethrow
0000068a  w    F .text	00000002 PendSV_Handler
0000067c  w    F .text	00000002 NMI_Handler
00005c90 g     F .text	00000050 _Balloc
00009bc8 g       .ARM.exidx	00000000 __exidx_end
00007a34 g     F .text	0000004c .hidden __fixsfsi
0000068e  w    F .text	00000002 I2C1_IRQHandler
0000068e  w    F .text	00000002 EINT2_IRQHandler
0000068e  w    F .text	00000002 UART1_IRQHandler
000082b4 g     F .text	00000004 .hidden __aeabi_unwind_cpp_pr0
00007634 g     F .text	0000008a .hidden __gtdf2
00009660 g     O .text	00000014 _ZTVSt13bad_exception
00002354 g     F .text	0000000c __errno
00009bc8 g       .ARM.exidx	00000000 __etext
00008a5c g     F .text	0000000a .hidden _Unwind_GetRegionStart
0000068e  w    F .text	00000002 EINT3_IRQHandler
00000ca0 g     F .text	00000074 serial_writable
000086a4 g     F .text	00000022 .hidden ___Unwind_Resume_or_Rethrow
0000068e  w    F .text	00000002 CANActivity_IRQHandler
00006574 g     F .text	00000028 _fstat_r
00001464 g     F .text	00000010 us_ticker_disable_interrupt
10001418 g     O .bss	00000004 errno
000086ec g     F .text	00000022 .hidden _Unwind_Backtrace
000076d0 g     F .text	00000010 .hidden __aeabi_cdcmple
00001a3c g     F .text	00000064 __cxa_begin_cleanup
00001140 g     F .text	00000040 pinmap_pinout
00008564 g     F .text	00000018 .hidden __restore_core_regs
000085a4 g     F .text	00000000 .hidden __gnu_Unwind_Save_VFP_D_16_to_31
000011c0 g     F .text	00000034 pinmap_peripheral
00001b6c g     F .text	000000dc __cxa_call_unexpected
000012c0 g     F .text	00000044 gpio_dir
0000068e  w    F .text	00000002 TIMER3_IRQHandler
0000068e  w    F .text	00000002 UART0_IRQHandler
000001e4  w    F .text	00000040 _ZN4mbed10DigitalOutC1E7PinName
00007df0 g     F .text	00000004 .hidden _Unwind_GetCFA
00002efc g     F .text	000000ec memcpy
000076c0 g     F .text	00000020 .hidden __aeabi_cdrcmple
100000c8 g       .data	00000000 Image$$RW_IRAM1$$Base
00007f20 g     F .text	00000032 .hidden _Unwind_VRS_Set
00002518 g     F .text	0000000c _cleanup_r
000015b0 g     F .text	0000000c _ZNK10__cxxabiv117__class_type_info20__do_find_public_srcEiPKvPKS0_S2_
00001080 g     F .text	00000024 gpio_init_in
00007144 g     F .text	00000022 .hidden __floatsidf
0000763c g     F .text	00000082 .hidden __ltdf2
000015bc g     F .text	00000014 _ZN10__cxxabiv117__class_type_infoD1Ev
00007a80 g     F .text	00000000 .hidden __aeabi_uldivmod
1000098c g       .data	00000000 __fini_array_end
100000d0 g     O .data	00000004 SystemCoreClock
000062b4 g     F .text	00000058 __fpclassifyd
0000293c g     F .text	00000010 malloc
000030d8 g     F .text	00000056 _raise_r
000005ac g     F .text	0000001e _fstat
00009808 g     O .text	000000c8 __mprec_tens
00000684  w    F .text	00000002 UsageFault_Handler
00005b6c g     F .text	00000008 __locale_charset
100013e4 g     O .bss	00000004 __malloc_top_pad
00001030 g     F .text	0000002c mbed_assert_internal
00003168 g     F .text	00000004 _getpid_r
10001c20 g       .heap	00000000 __HeapLimit
100009a0 g       .bss	00000000 __bss_start__
00007f70 g     F .text	00000070 .hidden __gnu_Unwind_Backtrace
10000974 g     O .data	00000004 __mb_cur_max
00007124 g     F .text	0000001e .hidden __aeabi_ui2d
00005b80 g     F .text	00000008 _localeconv_r
00001aa0 g     F .text	00000070 __gnu_end_cleanup
0000659c g     F .text	00000320 __sfvwrite_r
00005e14 g     F .text	00000012 __i2b
00001604 g     F .text	0000002a _ZNK10__cxxabiv117__class_type_info10__do_catchEPKSt9type_infoPPvj
00006ea0 g     F .text	00000000 .hidden __aeabi_drsub
000030b4 g     F .text	00000024 _sbrk_r
0000909f  w    O .text	00000016 ??_C@_0BG@IJFEJMFI@Thisstringdoesnotwork?$AA@
00008594 g     F .text	00000000 .hidden __gnu_Unwind_Save_VFP_D
0000628c g     F .text	00000028 _read_r
0000068e  w    F .text	00000002 PLL0_IRQHandler
000076f4 g     F .text	00000012 .hidden __aeabi_dcmplt
000082c0 g     F .text	000002a4 .hidden _Unwind_VRS_Pop
00005abc g     F .text	00000084 _fclose_r
0000068e  w    F .text	00000002 CAN_IRQHandler
000082bc  w    F .text	00000004 .hidden __aeabi_unwind_cpp_pr2
000024f4 g     F .text	00000024 fflush
100013e0 g     O .bss	00000004 __malloc_max_sbrked_mem
0000068e  w    F .text	00000002 PLL1_IRQHandler
000086ec g     F .text	00000022 .hidden ___Unwind_Backtrace
00007168 g     F .text	0000003a .hidden __extendsfdf2
00007464 g     F .text	000001d0 .hidden __aeabi_ddiv
0000068e  w    F .text	00000002 SSP0_IRQHandler
00006eac g     F .text	00000276 .hidden __adddf3
00009708 g     O .text	0000002c _ZTVN10__cxxabiv120__si_class_type_infoE
00009a18 g       .ARM.extab	00000000 __exidx_start
00007210 g     F .text	00000254 .hidden __aeabi_dmul
000009ac g     F .text	00000244 serial_baud
0000055c g     F .text	00000028 _isatty
000015ec g     F .text	00000018 _ZNK10__cxxabiv117__class_type_info11__do_upcastEPKS0_PKvRNS0_15__upcast_resultE
000014d4 g     F .text	00000004 _ZdlPv
00009784 g     O .text	00000004 _global_impure_ptr
000001e4  w    F .text	00000040 _ZN4mbed10DigitalOutC2E7PinName
000069a8 g     F .text	000003e0 _realloc_r
000028ec g     F .text	00000050 __libc_init_array
0000865c g     F .text	00000022 .hidden ___Unwind_RaiseException
00008d3c g     F .text	0000026e .hidden __udivdi3
00000128 g     F .text	00000000 _mainCRTStartup
00006550 g     F .text	00000024 _fputwc_r
000098e0 g     O .text	00000028 __mprec_bigtens
0000233c g     F .text	0000000e abort
00008680 g     F .text	00000022 .hidden ___Unwind_Resume
00007124 g     F .text	0000001e .hidden __floatunsidf
000005f4 g     F .text	00000028 _sbrk
000060b8 g     F .text	00000046 __mcmp
00001cd4 g     F .text	0000008c __cxa_end_catch
0000068e  w    F .text	00000002 I2S_IRQHandler
000014d8 g     F .text	00000002 _ZNSt13bad_exceptionD2Ev
00008fcc g     F .text	00000000 _init
0000068e  w    F .text	00000002 I2C2_IRQHandler
000005dc  w    F .text	00000002 mbed_sdk_init
000018f8 g     F .text	00000014 _ZSt9terminatev
000085ac g     F .text	00000000 .hidden __gnu_Unwind_Restore_WMMXD
00001450 g     F .text	00000014 us_ticker_set_interrupt
00005b40 g     F .text	0000002c __libc_fini_array
0000068e  w    F .text	00000002 RTC_IRQHandler
0000068e  w    F .text	00000002 TIMER0_IRQHandler
00000334  w    F .text	0000010c mbed_die
0000064c g     F .text	00000030 Reset_Handler
000096e0 g     O .text	00000022 _ZTSN10__cxxabiv117__class_type_infoE
0000068e  w    F .text	00000002 SPI_IRQHandler
00005d78 g     F .text	00000040 __hi0bits
00001f18 g     F .text	00000424 __gxx_personality_v0
00009608 g     O .text	00000008 _ZTISt9exception
00007744 g     F .text	0000004e .hidden __fixdfsi
00001474 g     F .text	0000000c us_ticker_clear_interrupt
00001948 g     F .text	00000002 _ZNSt9type_infoD1Ev
000012b8 g     F .text	00000006 gpio_mode
00002628 g     F .text	00000028 fprintf
00006eac g     F .text	00000276 .hidden __aeabi_dadd
0000763c g     F .text	00000082 .hidden __ledf2
00005f68 g     F .text	000000a0 __pow5mult
000071a4 g     F .text	0000006a .hidden __aeabi_ul2d
0000857c g     F .text	00000000 .hidden __gnu_Unwind_Restore_VFP
0000068e  w    F .text	00000002 EINT1_IRQHandler
0000068e  w    F .text	00000002 TIMER1_IRQHandler
00000000  w      *UND*	00000000 __deregister_frame_info
00001928 g     F .text	00000010 _ZSt13get_terminatev
10001420 g       .heap	00000000 end
0000068e  w    F .text	00000002 UART2_IRQHandler
00008680 g     F .text	00000022 .hidden _Unwind_Resume
00007ec4 g     F .text	0000000c .hidden _Unwind_DeleteException
1000098c g       .data	00000000 __data_end__
00007ec0 g     F .text	00000002 .hidden _Unwind_Complete
00001630 g     F .text	0000003e _ZNK10__cxxabiv117__class_type_info12__do_dyncastEiNS0_10__sub_kindEPKS0_PKvS3_S5_RNS0_16__dyncast_resultE
00007730 g     F .text	00000012 .hidden __aeabi_dcmpgt
00001578 g     F .text	00000036 _ZNK10__cxxabiv117__class_type_info11__do_upcastEPKS0_PPv
00002620 g     F .text	00000002 __sfp_lock_acquire
00009684 g     O .text	00000012 _ZTSSt13bad_exception
00002e68 g     F .text	00000092 memchr
1000141c g       .bss	00000000 __bss_end__
000026ec g     F .text	000001b0 _free_r
00001234 g     F .text	00000018 wait
00005b74 g     F .text	0000000c __locale_mb_cur_max
0000771c g     F .text	00000012 .hidden __aeabi_dcmpge
000049e4 g     F .text	000000d4 __call_exitprocs
00006ea8 g     F .text	0000027a .hidden __aeabi_dsub
0000068e  w    F .text	00000002 Default_Handler
10000918 g     O .data	00000004 __malloc_sbrk_base
00000128 g     F .text	00000000 _start
00009770 g     O .text	0000000d _ZTSSt9type_info
000071a4 g     F .text	0000006a .hidden __floatundidf
00000258 g     F .text	0000000c getConstGoodString
00000584 g     F .text	00000028 _lseek
00006008 g     F .text	000000b0 __lshift
000011a4 g     F .text	0000001c pinmap_find_peripheral
00000d14 g     F .text	00000034 serial_putc
00008768 g     F .text	000002cc .hidden __gnu_unwind_execute
0000639c g     F .text	000000a4 __register_exitproc
0000121c g     F .text	00000016 wait_us
00000878 g     F .text	00000064 uart0_irq
0000068e  w    F .text	00000002 ADC_IRQHandler
000016dc g     F .text	00000084 _ZNK10__cxxabiv120__si_class_type_info12__do_dyncastEiNS_17__class_type_info10__sub_kindEPKS1_PKvS4_S6_RNS1_16__dyncast_resultE
0000858c g     F .text	00000000 .hidden __gnu_Unwind_Restore_VFP_D
00005e28 g     F .text	0000013e __multiply
100009bc g     O .bss	00000018 myled
00007a34 g     F .text	0000004c .hidden __aeabi_f2iz
100013e8 g     O .bss	00000028 __malloc_current_mallinfo
000061e4 g     F .text	000000a8 __d2b
0000198c g     F .text	000000b0 __cxa_type_match
00001948 g     F .text	00000002 _ZNSt9type_infoD2Ev
0000068e  w    F .text	00000002 SSP1_IRQHandler
00001760 g     F .text	0000002a _ZNK10__cxxabiv120__si_class_type_info11__do_upcastEPKNS_17__class_type_infoEPKvRNS1_15__upcast_resultE
00000000  w      *UND*	00000000 software_init_hook
000005e0 g     F .text	00000012 __wrap_main
00007e68 g     F .text	00000044 .hidden __gnu_Unwind_Resume
00009658 g     O .text	00000008 _ZTIN10__cxxabiv119__foreign_exceptionE
000078fc g     F .text	00000136 .hidden __aeabi_fdiv
00004ac4 g     F .text	00000024 _close_r
00007144 g     F .text	00000022 .hidden __aeabi_i2d
00000948 g     F .text	00000064 uart1_irq
0000859c g     F .text	00000000 .hidden __gnu_Unwind_Restore_VFP_D_16_to_31
0000068e  w    F .text	00000002 USB_IRQHandler
00001670 g     F .text	00000014 _ZN10__cxxabiv120__si_class_type_infoD1Ev
00000bf0 g     F .text	00000078 serial_format
0000490c g     F .text	000000c4 __swsetup_r
0000865c g     F .text	00000022 .hidden _Unwind_RaiseException
00008a8c  w    F .text	00000002 .hidden __aeabi_ldiv0
000008dc g     F .text	0000006c uart3_irq
00007464 g     F .text	000001d0 .hidden __divdf3
0000194c g     F .text	00000004 _ZNKSt9type_info14__is_pointer_pEv
1000050c g     O .data	00000408 __malloc_av_
0000068e  w    F .text	00000002 BOD_IRQHandler
000005d8  w    F .text	00000002 mbed_main
00001304 g     F .text	00000050 pin_function
00007210 g     F .text	00000254 .hidden __muldf3
0000316c g     F .text	00000022 __sread
0000113c g     F .text	00000004 mbed_interface_connected
00003084 g     F .text	00000002 __malloc_lock
10000988 g       .data	00000000 __fini_array_start
000096a8 g     O .text	0000002c _ZTVN10__cxxabiv117__class_type_infoE
000017d0 g     F .text	00000080 __cxa_throw
100000c8 g     O .data	00000004 mightWork
000024c8 g     F .text	0000002c _fflush_r
00006440 g     F .text	0000005e _calloc_r
00002fe8 g     F .text	0000009a memset
00000680  w    F .text	00000002 MemManage_Handler
00000000 g       .text	000000cc __isr_vector
00000264 g     F .text	0000007c main
00000224  w    F .text	00000018 _ZN4mbed10DigitalOut5writeEi
100013dc g     O .bss	00000004 __malloc_max_total_mem
00001180 g     F .text	00000024 pinmap_merge
000018c0 g     F .text	00000008 __cxa_get_globals_fast
0000068e  w    F .text	00000002 WDT_IRQHandler
00000686  w    F .text	00000002 SVC_Handler
000031e8 g     F .text	00000008 __sclose
10000988 g       .data	00000000 __init_array_end
00004c18 g     F .text	00000ea2 _dtoa_r
0000295c g     F .text	0000050c _malloc_r
00006e84 g     F .text	0000001a __ascii_wctomb
000014dc g     F .text	00000008 _ZNKSt13bad_exception4whatEv
000071b4 g     F .text	0000005a .hidden __aeabi_l2d
00000d48 g     F .text	0000012c serial_set_flow_control
00000000  w      *UND*	00000000 hardware_init_hook
000096d4 g     O .text	0000000c _ZTIN10__cxxabiv117__class_type_infoE
10001420 g       .heap	00000000 __end__
00000000  w      *UND*	00000000 __libc_fini
000014d8 g     F .text	00000002 _ZNSt13bad_exceptionD1Ev
00002650 g     F .text	0000009c _malloc_trim_r
00007e54 g     F .text	00000012 .hidden __gnu_Unwind_ForcedUnwind
00007794 g     F .text	00000168 .hidden __mulsf3
000031f0 g     F .text	000001ba strcmp
20080000 g       .ARM.attributes	00000000 Image$$RW_IRAM3$$ZI$$Limit
000011f4 g     F .text	00000016 semihost_exit
000010e8 g     F .text	00000054 gpio_init_out_ex
00000e74 g     F .text	000001bc serial_init
00000690 g     F .text	000000b8 SystemInit
00007eac g     F .text	00000014 .hidden __gnu_Unwind_Resume_or_Rethrow
00000000  w      *UND*	00000000 __gnu_Unwind_Find_exidx
0000068e  w    F .text	00000002 QEI_IRQHandler
00007644 g     F .text	0000007a .hidden __nedf2
00008fd8 g     F .text	00000000 _fini
00008564 g     F .text	00000018 .hidden restore_core_regs
0000124c g     F .text	0000000c wait_ms
00008648 g     F .text	00000000 .hidden __gnu_Unwind_Save_WMMXC
00001684 g     F .text	0000001c _ZN10__cxxabiv120__si_class_type_infoD0Ev
00004ab8 g     F .text	0000000c atexit
000048e4 g     F .text	00000028 _write_r
00008a84 g     F .text	00000006 .hidden _Unwind_GetTextRelBase
00001b4c g     F .text	0000001e __cxa_call_terminate
0000068e  w    F .text	00000002 EINT0_IRQHandler
10008000 g       *ABS*	00000000 __StackTop
0000120c g     F .text	00000010 semihost_connected
10000508 g     O .data	00000004 _impure_ptr
0000105c  w    F .text	00000024 error
00009600 g     O .text	00000008 _ZTIN10__cxxabiv115__forced_unwindE
20080000 g       .ARM.attributes	00000000 Image$$RW_IRAM3$$Base
00002380 g     F .text	00000148 __sflush_r
00007794 g     F .text	00000168 .hidden __aeabi_fmul
1000097c g       .data	00000000 __preinit_array_end
00001938 g     F .text	00000010 _ZSt14get_unexpectedv
00000328 g     F .text	0000000c getConstHWString
00009610 g     O .text	00000024 _ZTSN10__cxxabiv119__foreign_exceptionE
00008a68 g     F .text	00000012 .hidden _Unwind_GetLanguageSpecificData
0000068e  w    F .text	00000002 DEF_IRQHandler
00001c48 g     F .text	0000008c __cxa_begin_catch
000015bc g     F .text	00000014 _ZN10__cxxabiv117__class_type_infoD2Ev
0000190c g     F .text	00000008 _ZN10__cxxabiv112__unexpectedEPFvvE
00007ed0 g     F .text	00000032 .hidden _Unwind_VRS_Get
000014e4 g     F .text	0000000c _ZNSt13bad_exceptionD0Ev
10008000 g       *ABS*	00000000 __stack
100000d4 g     O .data	00000004 _ZN10__cxxabiv119__terminate_handlerE
00008634 g     F .text	00000000 .hidden __gnu_Unwind_Restore_WMMXC
000076e0 g     F .text	00000012 .hidden __aeabi_dcmpeq
000014f0 g     F .text	00000058 __cxa_allocate_exception
00009734 g     O .text	0000000c _ZTIN10__cxxabiv120__si_class_type_infoE
000004c0 g     F .text	00000050 _write
00008a34 g     F .text	00000028 .hidden __gnu_unwind_frame
000086c8 g     F .text	00000022 .hidden _Unwind_ForcedUnwind
00001434 g     F .text	0000001c us_ticker_read
000064a0 g     F .text	000000ae __fputwc
000013cc g     F .text	00000068 us_ticker_init
10001410 g     O .bss	00000008 stdio_uart
10007400 g       *ABS*	00000c00 __StackLimit
00003190 g     F .text	00000038 __swrite
10000914 g     O .data	00000004 __malloc_trim_threshold
00002360 g     F .text	00000020 exit
0000289c g     F .text	00000050 _fwalk_reent
000016a0 g     F .text	0000003a _ZNK10__cxxabiv120__si_class_type_info20__do_find_public_srcEiPKvPKNS_17__class_type_infoES2_
00000c68 g     F .text	00000038 serial_getc
00006100 g     F .text	000000e4 __mdiff
00007744 g     F .text	0000004e .hidden __aeabi_d2iz
000018d0 g     F .text	00000026 _ZN10__cxxabiv111__terminateEPFvvE
000085f0 g     F .text	00000000 .hidden __gnu_Unwind_Save_WMMXD
00008fbc g     F .text	00000010 _kill
0000068e  w    F .text	00000002 DMA_IRQHandler
0000908b  w    O .text	00000014 ??_C@_0BE@LOIBOMCM@Thisstringmightwork?$AA@
00002624 g     F .text	00000002 __sfp_lock_release
10000ad4 g     O .bss	00000004 stdio_uart_inited
00009698 g     O .text	0000000c _ZTISt13bad_exception
00000510 g     F .text	0000004c _read
00008a8c  w    F .text	00000002 .hidden __aeabi_idiv0
1000097c g       .data	00000000 __init_array_start
0000148c g     F .text	00000046 ticker_irq_handler
0000061c g     F .text	00000030 _exit
00000682  w    F .text	00000002 BusFault_Handler
000018c8 g     F .text	00000008 __cxa_get_globals
00005bb0 g     F .text	000000e0 __smakebuf_r
00001480 g     F .text	0000000c us_ticker_irq_handler
100000d8 g     O .data	00000004 _ZN10__cxxabiv120__unexpected_handlerE
000033ac g     F .text	0000005c strlen
00009768 g     O .text	00000008 _ZTISt9type_info
000082b8  w    F .text	00000004 .hidden __aeabi_unwind_cpp_pr1
1000141c g       .bss	00000000 Image$$RW_IRAM1$$ZI$$Limit
000076d0 g     F .text	00000010 .hidden __aeabi_cdcmpeq
00007634 g     F .text	0000008a .hidden __gedf2
0000068e  w    F .text	00000002 UART3_IRQHandler
00009674 g     O .text	0000000d _ZTSSt9exception
0000068e  w    F .text	00000002 MCPWM_IRQHandler
00001258 g     F .text	00000030 gpio_set
10000978 g     O .data	00000004 __wctomb
00007ab0 g     F .text	00000030 .hidden __gnu_ldivmod_helper
0000234c g     F .text	00000008 abs
00006384 g     F .text	00000018 __sprint_r
10000bbc g     O .bss	00000004 us_ticker_inited
00007168 g     F .text	0000003a .hidden __aeabi_f2d
00008a7c g     F .text	00000006 .hidden _Unwind_GetDataRelBase
00001288 g     F .text	0000002e gpio_init
00000000  w      *UND*	00000000 _Jv_RegisterClasses
00006ea8 g     F .text	0000027a .hidden __subdf3
00003408 g     F .text	00001446 _vfprintf_r
1000097c g       .data	00000000 __preinit_array_start
00005db8 g     F .text	0000005a __lo0bits
00001354 g     F .text	00000078 pin_mode
00001954 g     F .text	0000002c _ZNKSt9type_infoeqERKS_
00000000  w      *UND*	00000000 __register_frame_info
0000068e  w    F .text	00000002 ENET_IRQHandler
00000320 g     F .text	00000008 addOne
000095e0 g     O .text	00000020 _ZTSN10__cxxabiv115__forced_unwindE
00004850 g     F .text	00000018 vfprintf
00003130 g     F .text	00000010 raise
00000494 g     F .text	0000002c _close
0000294c g     F .text	00000010 free
000005cc g     F .text	0000000c _ZN9__gnu_cxx27__verbose_terminate_handlerEv
00005cf4 g     F .text	00000082 __multadd
000015d0 g     F .text	0000001c _ZN10__cxxabiv117__class_type_infoD0Ev
00005ce0 g     F .text	00000012 _Bfree



Disassembly of section .text:

00000000 <__isr_vector>:
       0:	10008000 	andne	r8, r0, r0
       4:	0000064d 	andeq	r0, r0, sp, asr #12
       8:	0000067d 	andeq	r0, r0, sp, ror r6
       c:	0000067f 	andeq	r0, r0, pc, ror r6
      10:	00000681 	andeq	r0, r0, r1, lsl #13
      14:	00000683 	andeq	r0, r0, r3, lsl #13
      18:	00000685 	andeq	r0, r0, r5, lsl #13
	...
      2c:	00000687 	andeq	r0, r0, r7, lsl #13
      30:	00000689 	andeq	r0, r0, r9, lsl #13
      34:	00000000 	andeq	r0, r0, r0
      38:	0000068b 	andeq	r0, r0, fp, lsl #13
      3c:	0000068d 	andeq	r0, r0, sp, lsl #13
      40:	0000068f 	andeq	r0, r0, pc, lsl #13
      44:	0000068f 	andeq	r0, r0, pc, lsl #13
      48:	0000068f 	andeq	r0, r0, pc, lsl #13
      4c:	0000068f 	andeq	r0, r0, pc, lsl #13
      50:	0000068f 	andeq	r0, r0, pc, lsl #13
      54:	0000068f 	andeq	r0, r0, pc, lsl #13
      58:	0000068f 	andeq	r0, r0, pc, lsl #13
      5c:	0000068f 	andeq	r0, r0, pc, lsl #13
      60:	0000068f 	andeq	r0, r0, pc, lsl #13
      64:	0000068f 	andeq	r0, r0, pc, lsl #13
      68:	0000068f 	andeq	r0, r0, pc, lsl #13
      6c:	0000068f 	andeq	r0, r0, pc, lsl #13
      70:	0000068f 	andeq	r0, r0, pc, lsl #13
      74:	0000068f 	andeq	r0, r0, pc, lsl #13
      78:	0000068f 	andeq	r0, r0, pc, lsl #13
      7c:	0000068f 	andeq	r0, r0, pc, lsl #13
      80:	0000068f 	andeq	r0, r0, pc, lsl #13
      84:	0000068f 	andeq	r0, r0, pc, lsl #13
      88:	0000068f 	andeq	r0, r0, pc, lsl #13
      8c:	0000068f 	andeq	r0, r0, pc, lsl #13
      90:	0000068f 	andeq	r0, r0, pc, lsl #13
      94:	0000068f 	andeq	r0, r0, pc, lsl #13
      98:	0000068f 	andeq	r0, r0, pc, lsl #13
      9c:	0000068f 	andeq	r0, r0, pc, lsl #13
      a0:	0000068f 	andeq	r0, r0, pc, lsl #13
      a4:	0000068f 	andeq	r0, r0, pc, lsl #13
      a8:	0000068f 	andeq	r0, r0, pc, lsl #13
      ac:	0000068f 	andeq	r0, r0, pc, lsl #13
      b0:	0000068f 	andeq	r0, r0, pc, lsl #13
      b4:	0000068f 	andeq	r0, r0, pc, lsl #13
      b8:	0000068f 	andeq	r0, r0, pc, lsl #13
      bc:	0000068f 	andeq	r0, r0, pc, lsl #13
      c0:	0000068f 	andeq	r0, r0, pc, lsl #13
      c4:	0000068f 	andeq	r0, r0, pc, lsl #13
      c8:	0000068f 	andeq	r0, r0, pc, lsl #13

000000cc <__do_global_dtors_aux>:
      cc:	b510      	push	{r4, lr}
      ce:	4c05      	ldr	r4, [pc, #20]	; (e4 <__do_global_dtors_aux+0x18>)
      d0:	7823      	ldrb	r3, [r4, #0]
      d2:	b933      	cbnz	r3, e2 <__do_global_dtors_aux+0x16>
      d4:	4b04      	ldr	r3, [pc, #16]	; (e8 <__do_global_dtors_aux+0x1c>)
      d6:	b113      	cbz	r3, de <__do_global_dtors_aux+0x12>
      d8:	4804      	ldr	r0, [pc, #16]	; (ec <__do_global_dtors_aux+0x20>)
      da:	f3af 8000 	nop.w
      de:	2301      	movs	r3, #1
      e0:	7023      	strb	r3, [r4, #0]
      e2:	bd10      	pop	{r4, pc}
      e4:	100009a0 	andne	r0, r0, r0, lsr #19
      e8:	00000000 	andeq	r0, r0, r0
      ec:	00009908 	andeq	r9, r0, r8, lsl #18

000000f0 <frame_dummy>:
      f0:	4b08      	ldr	r3, [pc, #32]	; (114 <frame_dummy+0x24>)
      f2:	b510      	push	{r4, lr}
      f4:	b11b      	cbz	r3, fe <frame_dummy+0xe>
      f6:	4808      	ldr	r0, [pc, #32]	; (118 <frame_dummy+0x28>)
      f8:	4908      	ldr	r1, [pc, #32]	; (11c <frame_dummy+0x2c>)
      fa:	f3af 8000 	nop.w
      fe:	4808      	ldr	r0, [pc, #32]	; (120 <frame_dummy+0x30>)
     100:	6803      	ldr	r3, [r0, #0]
     102:	b903      	cbnz	r3, 106 <frame_dummy+0x16>
     104:	bd10      	pop	{r4, pc}
     106:	4b07      	ldr	r3, [pc, #28]	; (124 <frame_dummy+0x34>)
     108:	2b00      	cmp	r3, #0
     10a:	d0fb      	beq.n	104 <frame_dummy+0x14>
     10c:	e8bd 4010 	ldmia.w	sp!, {r4, lr}
     110:	4718      	bx	r3
     112:	bf00      	nop
     114:	00000000 	andeq	r0, r0, r0
     118:	00009908 	andeq	r9, r0, r8, lsl #18
     11c:	100009a4 	andne	r0, r0, r4, lsr #19
     120:	1000098c 	andne	r0, r0, ip, lsl #19
     124:	00000000 	andeq	r0, r0, r0

00000128 <_mainCRTStartup>:
     128:	4b15      	ldr	r3, [pc, #84]	; (180 <_mainCRTStartup+0x58>)
     12a:	2b00      	cmp	r3, #0
     12c:	bf08      	it	eq
     12e:	4b13      	ldreq	r3, [pc, #76]	; (17c <_mainCRTStartup+0x54>)
     130:	469d      	mov	sp, r3
     132:	f5a3 3a80 	sub.w	sl, r3, #65536	; 0x10000
     136:	2100      	movs	r1, #0
     138:	468b      	mov	fp, r1
     13a:	460f      	mov	r7, r1
     13c:	4813      	ldr	r0, [pc, #76]	; (18c <_mainCRTStartup+0x64>)
     13e:	4a14      	ldr	r2, [pc, #80]	; (190 <_mainCRTStartup+0x68>)
     140:	1a12      	subs	r2, r2, r0
     142:	f002 ff51 	bl	2fe8 <memset>
     146:	4b0f      	ldr	r3, [pc, #60]	; (184 <_mainCRTStartup+0x5c>)
     148:	2b00      	cmp	r3, #0
     14a:	d000      	beq.n	14e <_mainCRTStartup+0x26>
     14c:	4798      	blx	r3
     14e:	4b0e      	ldr	r3, [pc, #56]	; (188 <_mainCRTStartup+0x60>)
     150:	2b00      	cmp	r3, #0
     152:	d000      	beq.n	156 <_mainCRTStartup+0x2e>
     154:	4798      	blx	r3
     156:	2000      	movs	r0, #0
     158:	2100      	movs	r1, #0
     15a:	0004      	movs	r4, r0
     15c:	000d      	movs	r5, r1
     15e:	480d      	ldr	r0, [pc, #52]	; (194 <_mainCRTStartup+0x6c>)
     160:	2800      	cmp	r0, #0
     162:	d002      	beq.n	16a <_mainCRTStartup+0x42>
     164:	480c      	ldr	r0, [pc, #48]	; (198 <_mainCRTStartup+0x70>)
     166:	f004 fca7 	bl	4ab8 <atexit>
     16a:	f002 fbbf 	bl	28ec <__libc_init_array>
     16e:	0020      	movs	r0, r4
     170:	0029      	movs	r1, r5
     172:	f000 fa35 	bl	5e0 <__wrap_main>
     176:	f002 f8f3 	bl	2360 <exit>
     17a:	bf00      	nop
     17c:	00080000 	andeq	r0, r8, r0
     180:	10008000 	andne	r8, r0, r0
	...
     18c:	100009a0 	andne	r0, r0, r0, lsr #19
     190:	1000141c 	andne	r1, r0, ip, lsl r4
     194:	00004ab9 			; <UNDEFINED> instruction: 0x00004ab9
     198:	00005b41 	andeq	r5, r0, r1, asr #22

0000019c <gpio_write>:
     19c:	b500      	push	{lr}
     19e:	b083      	sub	sp, #12
     1a0:	9001      	str	r0, [sp, #4]
     1a2:	9100      	str	r1, [sp, #0]
     1a4:	9b01      	ldr	r3, [sp, #4]
     1a6:	681b      	ldr	r3, [r3, #0]
     1a8:	f1b3 3fff 	cmp.w	r3, #4294967295
     1ac:	d104      	bne.n	1b8 <gpio_write+0x1c>
     1ae:	480b      	ldr	r0, [pc, #44]	; (1dc <gpio_write+0x40>)
     1b0:	490b      	ldr	r1, [pc, #44]	; (1e0 <gpio_write+0x44>)
     1b2:	2224      	movs	r2, #36	; 0x24
     1b4:	f000 ff3c 	bl	1030 <mbed_assert_internal>
     1b8:	9b00      	ldr	r3, [sp, #0]
     1ba:	2b00      	cmp	r3, #0
     1bc:	d005      	beq.n	1ca <gpio_write+0x2e>
     1be:	9b01      	ldr	r3, [sp, #4]
     1c0:	68db      	ldr	r3, [r3, #12]
     1c2:	9a01      	ldr	r2, [sp, #4]
     1c4:	6852      	ldr	r2, [r2, #4]
     1c6:	601a      	str	r2, [r3, #0]
     1c8:	e004      	b.n	1d4 <gpio_write+0x38>
     1ca:	9b01      	ldr	r3, [sp, #4]
     1cc:	691b      	ldr	r3, [r3, #16]
     1ce:	9a01      	ldr	r2, [sp, #4]
     1d0:	6852      	ldr	r2, [r2, #4]
     1d2:	601a      	str	r2, [r3, #0]
     1d4:	b003      	add	sp, #12
     1d6:	f85d fb04 	ldr.w	pc, [sp], #4
     1da:	bf00      	nop
     1dc:	00008fe4 	andeq	r8, r0, r4, ror #31
     1e0:	00008ffc 	strdeq	r8, [r0], -ip

000001e4 <_ZN4mbed10DigitalOutC1E7PinName>:
     1e4:	b500      	push	{lr}
     1e6:	b083      	sub	sp, #12
     1e8:	9001      	str	r0, [sp, #4]
     1ea:	9100      	str	r1, [sp, #0]
     1ec:	9b01      	ldr	r3, [sp, #4]
     1ee:	2200      	movs	r2, #0
     1f0:	601a      	str	r2, [r3, #0]
     1f2:	9b01      	ldr	r3, [sp, #4]
     1f4:	2200      	movs	r2, #0
     1f6:	605a      	str	r2, [r3, #4]
     1f8:	9b01      	ldr	r3, [sp, #4]
     1fa:	2200      	movs	r2, #0
     1fc:	609a      	str	r2, [r3, #8]
     1fe:	9b01      	ldr	r3, [sp, #4]
     200:	2200      	movs	r2, #0
     202:	60da      	str	r2, [r3, #12]
     204:	9b01      	ldr	r3, [sp, #4]
     206:	2200      	movs	r2, #0
     208:	611a      	str	r2, [r3, #16]
     20a:	9b01      	ldr	r3, [sp, #4]
     20c:	2200      	movs	r2, #0
     20e:	615a      	str	r2, [r3, #20]
     210:	9b01      	ldr	r3, [sp, #4]
     212:	4618      	mov	r0, r3
     214:	9900      	ldr	r1, [sp, #0]
     216:	f000 ff45 	bl	10a4 <gpio_init_out>
     21a:	9b01      	ldr	r3, [sp, #4]
     21c:	4618      	mov	r0, r3
     21e:	b003      	add	sp, #12
     220:	f85d fb04 	ldr.w	pc, [sp], #4

00000224 <_ZN4mbed10DigitalOut5writeEi>:
     224:	b500      	push	{lr}
     226:	b083      	sub	sp, #12
     228:	9001      	str	r0, [sp, #4]
     22a:	9100      	str	r1, [sp, #0]
     22c:	9b01      	ldr	r3, [sp, #4]
     22e:	4618      	mov	r0, r3
     230:	9900      	ldr	r1, [sp, #0]
     232:	f7ff ffb3 	bl	19c <gpio_write>
     236:	b003      	add	sp, #12
     238:	f85d fb04 	ldr.w	pc, [sp], #4

0000023c <_ZN4mbed10DigitalOutaSEi>:
     23c:	b500      	push	{lr}
     23e:	b083      	sub	sp, #12
     240:	9001      	str	r0, [sp, #4]
     242:	9100      	str	r1, [sp, #0]
     244:	9801      	ldr	r0, [sp, #4]
     246:	9900      	ldr	r1, [sp, #0]
     248:	f7ff ffec 	bl	224 <_ZN4mbed10DigitalOut5writeEi>
     24c:	9b01      	ldr	r3, [sp, #4]
     24e:	4618      	mov	r0, r3
     250:	b003      	add	sp, #12
     252:	f85d fb04 	ldr.w	pc, [sp], #4
     256:	bf00      	nop

00000258 <getConstGoodString>:
     258:	4b01      	ldr	r3, [pc, #4]	; (260 <getConstGoodString+0x8>)
     25a:	4618      	mov	r0, r3
     25c:	4770      	bx	lr
     25e:	bf00      	nop
     260:	00009040 	andeq	r9, r0, r0, asr #32

00000264 <main>:
     264:	b500      	push	{lr}
     266:	b083      	sub	sp, #12
     268:	2300      	movs	r3, #0
     26a:	9301      	str	r3, [sp, #4]
     26c:	4815      	ldr	r0, [pc, #84]	; (2c4 <main+0x60>)
     26e:	2101      	movs	r1, #1
     270:	f7ff ffe4 	bl	23c <_ZN4mbed10DigitalOutaSEi>
     274:	4814      	ldr	r0, [pc, #80]	; (2c8 <main+0x64>)
     276:	f000 ffdd 	bl	1234 <wait>
     27a:	4812      	ldr	r0, [pc, #72]	; (2c4 <main+0x60>)
     27c:	2100      	movs	r1, #0
     27e:	f7ff ffdd 	bl	23c <_ZN4mbed10DigitalOutaSEi>
     282:	4811      	ldr	r0, [pc, #68]	; (2c8 <main+0x64>)
     284:	f000 ffd6 	bl	1234 <wait>
     288:	4b10      	ldr	r3, [pc, #64]	; (2cc <main+0x68>)
     28a:	681b      	ldr	r3, [r3, #0]
     28c:	4810      	ldr	r0, [pc, #64]	; (2d0 <main+0x6c>)
     28e:	4619      	mov	r1, r3
     290:	f002 fefc 	bl	308c <printf>
     294:	f000 f848 	bl	328 <getConstHWString>
     298:	4603      	mov	r3, r0
     29a:	480e      	ldr	r0, [pc, #56]	; (2d4 <main+0x70>)
     29c:	4619      	mov	r1, r3
     29e:	f002 fef5 	bl	308c <printf>
     2a2:	f7ff ffd9 	bl	258 <getConstGoodString>
     2a6:	4603      	mov	r3, r0
     2a8:	480b      	ldr	r0, [pc, #44]	; (2d8 <main+0x74>)
     2aa:	4619      	mov	r1, r3
     2ac:	f002 feee 	bl	308c <printf>
     2b0:	9b01      	ldr	r3, [sp, #4]
     2b2:	480a      	ldr	r0, [pc, #40]	; (2dc <main+0x78>)
     2b4:	4619      	mov	r1, r3
     2b6:	f002 fee9 	bl	308c <printf>
     2ba:	ab01      	add	r3, sp, #4
     2bc:	4618      	mov	r0, r3
     2be:	f000 f82f 	bl	320 <addOne>
     2c2:	e7d3      	b.n	26c <main+0x8>
     2c4:	100009bc 			; <UNDEFINED> instruction: 0x100009bc
     2c8:	3e4ccccd 	cdpcc	12, 4, cr12, cr12, cr13, {6}
     2cc:	100000c8 	andne	r0, r0, r8, asr #1
     2d0:	00009054 	andeq	r9, r0, r4, asr r0
     2d4:	00009064 	andeq	r9, r0, r4, rrx
     2d8:	00009070 	andeq	r9, r0, r0, ror r0
     2dc:	00009080 	andeq	r9, r0, r0, lsl #1

000002e0 <_Z41__static_initialization_and_destruction_0ii>:
     2e0:	b500      	push	{lr}
     2e2:	b083      	sub	sp, #12
     2e4:	9001      	str	r0, [sp, #4]
     2e6:	9100      	str	r1, [sp, #0]
     2e8:	9b01      	ldr	r3, [sp, #4]
     2ea:	2b01      	cmp	r3, #1
     2ec:	d108      	bne.n	300 <_Z41__static_initialization_and_destruction_0ii+0x20>
     2ee:	9b00      	ldr	r3, [sp, #0]
     2f0:	f64f 72ff 	movw	r2, #65535	; 0xffff
     2f4:	4293      	cmp	r3, r2
     2f6:	d103      	bne.n	300 <_Z41__static_initialization_and_destruction_0ii+0x20>
     2f8:	4803      	ldr	r0, [pc, #12]	; (308 <_Z41__static_initialization_and_destruction_0ii+0x28>)
     2fa:	4904      	ldr	r1, [pc, #16]	; (30c <_Z41__static_initialization_and_destruction_0ii+0x2c>)
     2fc:	f7ff ff72 	bl	1e4 <_ZN4mbed10DigitalOutC1E7PinName>
     300:	b003      	add	sp, #12
     302:	f85d fb04 	ldr.w	pc, [sp], #4
     306:	bf00      	nop
     308:	100009bc 			; <UNDEFINED> instruction: 0x100009bc
     30c:	2009c032 	andcs	ip, r9, r2, lsr r0

00000310 <_GLOBAL__sub_I_myled>:
     310:	b508      	push	{r3, lr}
     312:	2001      	movs	r0, #1
     314:	f64f 71ff 	movw	r1, #65535	; 0xffff
     318:	f7ff ffe2 	bl	2e0 <_Z41__static_initialization_and_destruction_0ii>
     31c:	bd08      	pop	{r3, pc}
     31e:	bf00      	nop

00000320 <addOne>:
     320:	6801      	ldr	r1, [r0, #0]
     322:	3101      	adds	r1, #1
     324:	6001      	str	r1, [r0, #0]
     326:	4770      	bx	lr

00000328 <getConstHWString>:
     328:	4801      	ldr	r0, [pc, #4]	; (330 <getConstHWString+0x8>)
     32a:	4478      	add	r0, pc
     32c:	6800      	ldr	r0, [r0, #0]
     32e:	4770      	bx	lr
     330:	1000065e 	andne	r0, r0, lr, asr r6

00000334 <mbed_die>:
     334:	b500      	push	{lr}
     336:	b099      	sub	sp, #100	; 0x64
     338:	b672      	cpsid	i
     33a:	493b      	ldr	r1, [pc, #236]	; (428 <mbed_die+0xf4>)
     33c:	4668      	mov	r0, sp
     33e:	f000 feb1 	bl	10a4 <gpio_init_out>
     342:	a806      	add	r0, sp, #24
     344:	4939      	ldr	r1, [pc, #228]	; (42c <mbed_die+0xf8>)
     346:	f000 fead 	bl	10a4 <gpio_init_out>
     34a:	a80c      	add	r0, sp, #48	; 0x30
     34c:	4938      	ldr	r1, [pc, #224]	; (430 <mbed_die+0xfc>)
     34e:	f000 fea9 	bl	10a4 <gpio_init_out>
     352:	a812      	add	r0, sp, #72	; 0x48
     354:	4937      	ldr	r1, [pc, #220]	; (434 <mbed_die+0x100>)
     356:	f000 fea5 	bl	10a4 <gpio_init_out>
     35a:	e032      	b.n	3c2 <mbed_die+0x8e>
     35c:	9906      	ldr	r1, [sp, #24]
     35e:	9b03      	ldr	r3, [sp, #12]
     360:	9a01      	ldr	r2, [sp, #4]
     362:	3101      	adds	r1, #1
     364:	601a      	str	r2, [r3, #0]
     366:	d059      	beq.n	41c <mbed_die+0xe8>
     368:	990c      	ldr	r1, [sp, #48]	; 0x30
     36a:	9b0a      	ldr	r3, [sp, #40]	; 0x28
     36c:	9a07      	ldr	r2, [sp, #28]
     36e:	3101      	adds	r1, #1
     370:	601a      	str	r2, [r3, #0]
     372:	d04d      	beq.n	410 <mbed_die+0xdc>
     374:	9912      	ldr	r1, [sp, #72]	; 0x48
     376:	9b10      	ldr	r3, [sp, #64]	; 0x40
     378:	9a0d      	ldr	r2, [sp, #52]	; 0x34
     37a:	3101      	adds	r1, #1
     37c:	601a      	str	r2, [r3, #0]
     37e:	d041      	beq.n	404 <mbed_die+0xd0>
     380:	9b15      	ldr	r3, [sp, #84]	; 0x54
     382:	9a13      	ldr	r2, [sp, #76]	; 0x4c
     384:	2096      	movs	r0, #150	; 0x96
     386:	601a      	str	r2, [r3, #0]
     388:	f000 ff60 	bl	124c <wait_ms>
     38c:	9b00      	ldr	r3, [sp, #0]
     38e:	3301      	adds	r3, #1
     390:	d032      	beq.n	3f8 <mbed_die+0xc4>
     392:	9906      	ldr	r1, [sp, #24]
     394:	9b04      	ldr	r3, [sp, #16]
     396:	9a01      	ldr	r2, [sp, #4]
     398:	3101      	adds	r1, #1
     39a:	601a      	str	r2, [r3, #0]
     39c:	d026      	beq.n	3ec <mbed_die+0xb8>
     39e:	990c      	ldr	r1, [sp, #48]	; 0x30
     3a0:	9b09      	ldr	r3, [sp, #36]	; 0x24
     3a2:	9a07      	ldr	r2, [sp, #28]
     3a4:	3101      	adds	r1, #1
     3a6:	601a      	str	r2, [r3, #0]
     3a8:	d01a      	beq.n	3e0 <mbed_die+0xac>
     3aa:	9912      	ldr	r1, [sp, #72]	; 0x48
     3ac:	9b0f      	ldr	r3, [sp, #60]	; 0x3c
     3ae:	9a0d      	ldr	r2, [sp, #52]	; 0x34
     3b0:	3101      	adds	r1, #1
     3b2:	601a      	str	r2, [r3, #0]
     3b4:	d00e      	beq.n	3d4 <mbed_die+0xa0>
     3b6:	9b16      	ldr	r3, [sp, #88]	; 0x58
     3b8:	9a13      	ldr	r2, [sp, #76]	; 0x4c
     3ba:	2096      	movs	r0, #150	; 0x96
     3bc:	601a      	str	r2, [r3, #0]
     3be:	f000 ff45 	bl	124c <wait_ms>
     3c2:	9b00      	ldr	r3, [sp, #0]
     3c4:	3301      	adds	r3, #1
     3c6:	d1c9      	bne.n	35c <mbed_die+0x28>
     3c8:	481b      	ldr	r0, [pc, #108]	; (438 <mbed_die+0x104>)
     3ca:	491c      	ldr	r1, [pc, #112]	; (43c <mbed_die+0x108>)
     3cc:	2224      	movs	r2, #36	; 0x24
     3ce:	f000 fe2f 	bl	1030 <mbed_assert_internal>
     3d2:	e7c3      	b.n	35c <mbed_die+0x28>
     3d4:	4818      	ldr	r0, [pc, #96]	; (438 <mbed_die+0x104>)
     3d6:	4919      	ldr	r1, [pc, #100]	; (43c <mbed_die+0x108>)
     3d8:	2224      	movs	r2, #36	; 0x24
     3da:	f000 fe29 	bl	1030 <mbed_assert_internal>
     3de:	e7ea      	b.n	3b6 <mbed_die+0x82>
     3e0:	4815      	ldr	r0, [pc, #84]	; (438 <mbed_die+0x104>)
     3e2:	4916      	ldr	r1, [pc, #88]	; (43c <mbed_die+0x108>)
     3e4:	2224      	movs	r2, #36	; 0x24
     3e6:	f000 fe23 	bl	1030 <mbed_assert_internal>
     3ea:	e7de      	b.n	3aa <mbed_die+0x76>
     3ec:	4812      	ldr	r0, [pc, #72]	; (438 <mbed_die+0x104>)
     3ee:	4913      	ldr	r1, [pc, #76]	; (43c <mbed_die+0x108>)
     3f0:	2224      	movs	r2, #36	; 0x24
     3f2:	f000 fe1d 	bl	1030 <mbed_assert_internal>
     3f6:	e7d2      	b.n	39e <mbed_die+0x6a>
     3f8:	480f      	ldr	r0, [pc, #60]	; (438 <mbed_die+0x104>)
     3fa:	4910      	ldr	r1, [pc, #64]	; (43c <mbed_die+0x108>)
     3fc:	2224      	movs	r2, #36	; 0x24
     3fe:	f000 fe17 	bl	1030 <mbed_assert_internal>
     402:	e7c6      	b.n	392 <mbed_die+0x5e>
     404:	480c      	ldr	r0, [pc, #48]	; (438 <mbed_die+0x104>)
     406:	490d      	ldr	r1, [pc, #52]	; (43c <mbed_die+0x108>)
     408:	2224      	movs	r2, #36	; 0x24
     40a:	f000 fe11 	bl	1030 <mbed_assert_internal>
     40e:	e7b7      	b.n	380 <mbed_die+0x4c>
     410:	4809      	ldr	r0, [pc, #36]	; (438 <mbed_die+0x104>)
     412:	490a      	ldr	r1, [pc, #40]	; (43c <mbed_die+0x108>)
     414:	2224      	movs	r2, #36	; 0x24
     416:	f000 fe0b 	bl	1030 <mbed_assert_internal>
     41a:	e7ab      	b.n	374 <mbed_die+0x40>
     41c:	4806      	ldr	r0, [pc, #24]	; (438 <mbed_die+0x104>)
     41e:	4907      	ldr	r1, [pc, #28]	; (43c <mbed_die+0x108>)
     420:	2224      	movs	r2, #36	; 0x24
     422:	f000 fe05 	bl	1030 <mbed_assert_internal>
     426:	e79f      	b.n	368 <mbed_die+0x34>
     428:	2009c032 	andcs	ip, r9, r2, lsr r0
     42c:	2009c034 	andcs	ip, r9, r4, lsr r0
     430:	2009c035 	andcs	ip, r9, r5, lsr r0
     434:	2009c037 	andcs	ip, r9, r7, lsr r0
     438:	000090b8 	strheq	r9, [r0], -r8
     43c:	000090d0 	ldrdeq	r9, [r0], -r0

00000440 <NVIC_SetVector>:
     440:	4a0c      	ldr	r2, [pc, #48]	; (474 <NVIC_SetVector+0x34>)
     442:	b430      	push	{r4, r5}
     444:	6893      	ldr	r3, [r2, #8]
     446:	6894      	ldr	r4, [r2, #8]
     448:	461a      	mov	r2, r3
     44a:	f1b4 5f80 	cmp.w	r4, #268435456	; 0x10000000
     44e:	d20c      	bcs.n	46a <NVIC_SetVector+0x2a>
     450:	4a09      	ldr	r2, [pc, #36]	; (478 <NVIC_SetVector+0x38>)
     452:	f103 05c4 	add.w	r5, r3, #196	; 0xc4
     456:	f853 4b04 	ldr.w	r4, [r3], #4
     45a:	42ab      	cmp	r3, r5
     45c:	f842 4f04 	str.w	r4, [r2, #4]!
     460:	d1f9      	bne.n	456 <NVIC_SetVector+0x16>
     462:	4b04      	ldr	r3, [pc, #16]	; (474 <NVIC_SetVector+0x34>)
     464:	f04f 5280 	mov.w	r2, #268435456	; 0x10000000
     468:	609a      	str	r2, [r3, #8]
     46a:	3010      	adds	r0, #16
     46c:	f842 1020 	str.w	r1, [r2, r0, lsl #2]
     470:	bc30      	pop	{r4, r5}
     472:	4770      	bx	lr
     474:	e000ed00 	and	lr, r0, r0, lsl #26
     478:	0ffffffc 	svceq	0x00fffffc

0000047c <_ZL11init_serialv.part.0>:
     47c:	4802      	ldr	r0, [pc, #8]	; (488 <_ZL11init_serialv.part.0+0xc>)
     47e:	4903      	ldr	r1, [pc, #12]	; (48c <_ZL11init_serialv.part.0+0x10>)
     480:	4a03      	ldr	r2, [pc, #12]	; (490 <_ZL11init_serialv.part.0+0x14>)
     482:	f000 bcf7 	b.w	e74 <serial_init>
     486:	bf00      	nop
     488:	10001410 	andne	r1, r0, r0, lsl r4
     48c:	2009c002 	andcs	ip, r9, r2
     490:	2009c003 	andcs	ip, r9, r3

00000494 <_close>:
     494:	2802      	cmp	r0, #2
     496:	b508      	push	{r3, lr}
     498:	dd0b      	ble.n	4b2 <_close+0x1e>
     49a:	4b08      	ldr	r3, [pc, #32]	; (4bc <_close+0x28>)
     49c:	1ec2      	subs	r2, r0, #3
     49e:	f853 0022 	ldr.w	r0, [r3, r2, lsl #2]
     4a2:	2100      	movs	r1, #0
     4a4:	f843 1022 	str.w	r1, [r3, r2, lsl #2]
     4a8:	b128      	cbz	r0, 4b6 <_close+0x22>
     4aa:	6803      	ldr	r3, [r0, #0]
     4ac:	685b      	ldr	r3, [r3, #4]
     4ae:	4798      	blx	r3
     4b0:	bd08      	pop	{r3, pc}
     4b2:	2000      	movs	r0, #0
     4b4:	bd08      	pop	{r3, pc}
     4b6:	f04f 30ff 	mov.w	r0, #4294967295
     4ba:	bd08      	pop	{r3, pc}
     4bc:	100009d4 	ldrdne	r0, [r0], -r4

000004c0 <_write>:
     4c0:	2802      	cmp	r0, #2
     4c2:	b570      	push	{r4, r5, r6, lr}
     4c4:	460c      	mov	r4, r1
     4c6:	4616      	mov	r6, r2
     4c8:	dc0f      	bgt.n	4ea <_write+0x2a>
     4ca:	4b0e      	ldr	r3, [pc, #56]	; (504 <_write+0x44>)
     4cc:	681b      	ldr	r3, [r3, #0]
     4ce:	b90b      	cbnz	r3, 4d4 <_write+0x14>
     4d0:	f7ff ffd4 	bl	47c <_ZL11init_serialv.part.0>
     4d4:	19a5      	adds	r5, r4, r6
     4d6:	b136      	cbz	r6, 4e6 <_write+0x26>
     4d8:	f814 1b01 	ldrb.w	r1, [r4], #1
     4dc:	480a      	ldr	r0, [pc, #40]	; (508 <_write+0x48>)
     4de:	f000 fc19 	bl	d14 <serial_putc>
     4e2:	42ac      	cmp	r4, r5
     4e4:	d1f8      	bne.n	4d8 <_write+0x18>
     4e6:	4630      	mov	r0, r6
     4e8:	bd70      	pop	{r4, r5, r6, pc}
     4ea:	4b08      	ldr	r3, [pc, #32]	; (50c <_write+0x4c>)
     4ec:	3803      	subs	r0, #3
     4ee:	f853 0020 	ldr.w	r0, [r3, r0, lsl #2]
     4f2:	b118      	cbz	r0, 4fc <_write+0x3c>
     4f4:	6803      	ldr	r3, [r0, #0]
     4f6:	681b      	ldr	r3, [r3, #0]
     4f8:	4798      	blx	r3
     4fa:	bd70      	pop	{r4, r5, r6, pc}
     4fc:	f04f 30ff 	mov.w	r0, #4294967295
     500:	bd70      	pop	{r4, r5, r6, pc}
     502:	bf00      	nop
     504:	10000ad4 	ldrdne	r0, [r0], -r4
     508:	10001410 	andne	r1, r0, r0, lsl r4
     50c:	100009d4 	ldrdne	r0, [r0], -r4

00000510 <_read>:
     510:	2802      	cmp	r0, #2
     512:	b510      	push	{r4, lr}
     514:	460c      	mov	r4, r1
     516:	dc09      	bgt.n	52c <_read+0x1c>
     518:	4b0d      	ldr	r3, [pc, #52]	; (550 <_read+0x40>)
     51a:	681b      	ldr	r3, [r3, #0]
     51c:	b18b      	cbz	r3, 542 <_read+0x32>
     51e:	480d      	ldr	r0, [pc, #52]	; (554 <_read+0x44>)
     520:	f000 fba2 	bl	c68 <serial_getc>
     524:	2301      	movs	r3, #1
     526:	7020      	strb	r0, [r4, #0]
     528:	4618      	mov	r0, r3
     52a:	bd10      	pop	{r4, pc}
     52c:	4b0a      	ldr	r3, [pc, #40]	; (558 <_read+0x48>)
     52e:	3803      	subs	r0, #3
     530:	f853 0020 	ldr.w	r0, [r3, r0, lsl #2]
     534:	b140      	cbz	r0, 548 <_read+0x38>
     536:	6803      	ldr	r3, [r0, #0]
     538:	689b      	ldr	r3, [r3, #8]
     53a:	4798      	blx	r3
     53c:	4603      	mov	r3, r0
     53e:	4618      	mov	r0, r3
     540:	bd10      	pop	{r4, pc}
     542:	f7ff ff9b 	bl	47c <_ZL11init_serialv.part.0>
     546:	e7ea      	b.n	51e <_read+0xe>
     548:	f04f 33ff 	mov.w	r3, #4294967295
     54c:	e7ec      	b.n	528 <_read+0x18>
     54e:	bf00      	nop
     550:	10000ad4 	ldrdne	r0, [r0], -r4
     554:	10001410 	andne	r1, r0, r0, lsl r4
     558:	100009d4 	ldrdne	r0, [r0], -r4

0000055c <_isatty>:
     55c:	2802      	cmp	r0, #2
     55e:	b508      	push	{r3, lr}
     560:	dd08      	ble.n	574 <_isatty+0x18>
     562:	4b07      	ldr	r3, [pc, #28]	; (580 <_isatty+0x24>)
     564:	3803      	subs	r0, #3
     566:	f853 0020 	ldr.w	r0, [r3, r0, lsl #2]
     56a:	b128      	cbz	r0, 578 <_isatty+0x1c>
     56c:	6803      	ldr	r3, [r0, #0]
     56e:	68db      	ldr	r3, [r3, #12]
     570:	4798      	blx	r3
     572:	bd08      	pop	{r3, pc}
     574:	2001      	movs	r0, #1
     576:	bd08      	pop	{r3, pc}
     578:	f04f 30ff 	mov.w	r0, #4294967295
     57c:	bd08      	pop	{r3, pc}
     57e:	bf00      	nop
     580:	100009d4 	ldrdne	r0, [r0], -r4

00000584 <_lseek>:
     584:	2802      	cmp	r0, #2
     586:	b508      	push	{r3, lr}
     588:	dd08      	ble.n	59c <_lseek+0x18>
     58a:	4b07      	ldr	r3, [pc, #28]	; (5a8 <_lseek+0x24>)
     58c:	3803      	subs	r0, #3
     58e:	f853 0020 	ldr.w	r0, [r3, r0, lsl #2]
     592:	b128      	cbz	r0, 5a0 <_lseek+0x1c>
     594:	6803      	ldr	r3, [r0, #0]
     596:	691b      	ldr	r3, [r3, #16]
     598:	4798      	blx	r3
     59a:	bd08      	pop	{r3, pc}
     59c:	2000      	movs	r0, #0
     59e:	bd08      	pop	{r3, pc}
     5a0:	f04f 30ff 	mov.w	r0, #4294967295
     5a4:	bd08      	pop	{r3, pc}
     5a6:	bf00      	nop
     5a8:	100009d4 	ldrdne	r0, [r0], -r4

000005ac <_fstat>:
     5ac:	2802      	cmp	r0, #2
     5ae:	b508      	push	{r3, lr}
     5b0:	d804      	bhi.n	5bc <_fstat+0x10>
     5b2:	f44f 5300 	mov.w	r3, #8192	; 0x2000
     5b6:	604b      	str	r3, [r1, #4]
     5b8:	2000      	movs	r0, #0
     5ba:	bd08      	pop	{r3, pc}
     5bc:	f001 feca 	bl	2354 <__errno>
     5c0:	2309      	movs	r3, #9
     5c2:	6003      	str	r3, [r0, #0]
     5c4:	f04f 30ff 	mov.w	r0, #4294967295
     5c8:	bd08      	pop	{r3, pc}
     5ca:	bf00      	nop

000005cc <_ZN9__gnu_cxx27__verbose_terminate_handlerEv>:
     5cc:	4801      	ldr	r0, [pc, #4]	; (5d4 <_ZN9__gnu_cxx27__verbose_terminate_handlerEv+0x8>)
     5ce:	f000 bd45 	b.w	105c <error>
     5d2:	bf00      	nop
     5d4:	0000913c 	andeq	r9, r0, ip, lsr r1

000005d8 <mbed_main>:
     5d8:	4770      	bx	lr
     5da:	bf00      	nop

000005dc <mbed_sdk_init>:
     5dc:	4770      	bx	lr
     5de:	bf00      	nop

000005e0 <__wrap_main>:
     5e0:	b508      	push	{r3, lr}
     5e2:	f7ff fffb 	bl	5dc <mbed_sdk_init>
     5e6:	f7ff fff7 	bl	5d8 <mbed_main>
     5ea:	e8bd 4008 	ldmia.w	sp!, {r3, lr}
     5ee:	f7ff be39 	b.w	264 <main>
     5f2:	bf00      	nop

000005f4 <_sbrk>:
     5f4:	4a07      	ldr	r2, [pc, #28]	; (614 <_sbrk+0x20>)
     5f6:	6813      	ldr	r3, [r2, #0]
     5f8:	4418      	add	r0, r3
     5fa:	f3ef 8108 	mrs	r1, MSP
     5fe:	4288      	cmp	r0, r1
     600:	d202      	bcs.n	608 <_sbrk+0x14>
     602:	6010      	str	r0, [r2, #0]
     604:	4618      	mov	r0, r3
     606:	4770      	bx	lr
     608:	4b03      	ldr	r3, [pc, #12]	; (618 <_sbrk+0x24>)
     60a:	220c      	movs	r2, #12
     60c:	601a      	str	r2, [r3, #0]
     60e:	f04f 30ff 	mov.w	r0, #4294967295
     612:	4770      	bx	lr
     614:	100000cc 	andne	r0, r0, ip, asr #1
     618:	10001418 	andne	r1, r0, r8, lsl r4

0000061c <_exit>:
     61c:	4c0a      	ldr	r4, [pc, #40]	; (648 <_exit+0x2c>)
     61e:	b508      	push	{r3, lr}
     620:	6823      	ldr	r3, [r4, #0]
     622:	4605      	mov	r5, r0
     624:	6898      	ldr	r0, [r3, #8]
     626:	f001 ff65 	bl	24f4 <fflush>
     62a:	6823      	ldr	r3, [r4, #0]
     62c:	68d8      	ldr	r0, [r3, #12]
     62e:	f001 ff61 	bl	24f4 <fflush>
     632:	f000 fd83 	bl	113c <mbed_interface_connected>
     636:	b920      	cbnz	r0, 642 <_exit+0x26>
     638:	b905      	cbnz	r5, 63c <_exit+0x20>
     63a:	e7fe      	b.n	63a <_exit+0x1e>
     63c:	f7ff fe7a 	bl	334 <mbed_die>
     640:	e7fb      	b.n	63a <_exit+0x1e>
     642:	f000 fdd7 	bl	11f4 <semihost_exit>
     646:	e7f7      	b.n	638 <_exit+0x1c>
     648:	10000508 	andne	r0, r0, r8, lsl #10

0000064c <Reset_Handler>:
     64c:	4906      	ldr	r1, [pc, #24]	; (668 <Reset_Handler+0x1c>)
     64e:	4a07      	ldr	r2, [pc, #28]	; (66c <Reset_Handler+0x20>)
     650:	4b07      	ldr	r3, [pc, #28]	; (670 <Reset_Handler+0x24>)
     652:	429a      	cmp	r2, r3
     654:	bfbe      	ittt	lt
     656:	f851 0b04 	ldrlt.w	r0, [r1], #4
     65a:	f842 0b04 	strlt.w	r0, [r2], #4
     65e:	e7f8      	blt.n	652 <Reset_Handler+0x6>
     660:	4804      	ldr	r0, [pc, #16]	; (674 <Reset_Handler+0x28>)
     662:	4780      	blx	r0
     664:	4804      	ldr	r0, [pc, #16]	; (678 <Reset_Handler+0x2c>)
     666:	4700      	bx	r0
     668:	00009bc8 	andeq	r9, r0, r8, asr #23
     66c:	100000c8 	andne	r0, r0, r8, asr #1
     670:	1000098c 	andne	r0, r0, ip, lsl #19
     674:	00000691 	muleq	r0, r1, r6
     678:	00000129 	andeq	r0, r0, r9, lsr #2

0000067c <NMI_Handler>:
     67c:	e7fe      	b.n	67c <NMI_Handler>

0000067e <HardFault_Handler>:
     67e:	e7fe      	b.n	67e <HardFault_Handler>

00000680 <MemManage_Handler>:
     680:	e7fe      	b.n	680 <MemManage_Handler>

00000682 <BusFault_Handler>:
     682:	e7fe      	b.n	682 <BusFault_Handler>

00000684 <UsageFault_Handler>:
     684:	e7fe      	b.n	684 <UsageFault_Handler>

00000686 <SVC_Handler>:
     686:	e7fe      	b.n	686 <SVC_Handler>

00000688 <DebugMon_Handler>:
     688:	e7fe      	b.n	688 <DebugMon_Handler>

0000068a <PendSV_Handler>:
     68a:	e7fe      	b.n	68a <PendSV_Handler>

0000068c <SysTick_Handler>:
     68c:	e7fe      	b.n	68c <SysTick_Handler>

0000068e <ADC_IRQHandler>:
     68e:	e7fe      	b.n	68e <ADC_IRQHandler>

00000690 <SystemInit>:
     690:	4a2b      	ldr	r2, [pc, #172]	; (740 <SystemInit+0xb0>)
     692:	2320      	movs	r3, #32
     694:	b470      	push	{r4, r5, r6}
     696:	f8c2 31a0 	str.w	r3, [r2, #416]	; 0x1a0
     69a:	f8d2 31a0 	ldr.w	r3, [r2, #416]	; 0x1a0
     69e:	0698      	lsls	r0, r3, #26
     6a0:	d445      	bmi.n	72e <SystemInit+0x9e>
     6a2:	4b27      	ldr	r3, [pc, #156]	; (740 <SystemInit+0xb0>)
     6a4:	2102      	movs	r1, #2
     6a6:	2500      	movs	r5, #0
     6a8:	2401      	movs	r4, #1
     6aa:	20aa      	movs	r0, #170	; 0xaa
     6ac:	2255      	movs	r2, #85	; 0x55
     6ae:	260b      	movs	r6, #11
     6b0:	f8c3 1104 	str.w	r1, [r3, #260]	; 0x104
     6b4:	f8c3 51a8 	str.w	r5, [r3, #424]	; 0x1a8
     6b8:	4619      	mov	r1, r3
     6ba:	f8c3 51ac 	str.w	r5, [r3, #428]	; 0x1ac
     6be:	f8c3 410c 	str.w	r4, [r3, #268]	; 0x10c
     6c2:	f8c3 6084 	str.w	r6, [r3, #132]	; 0x84
     6c6:	f8c3 008c 	str.w	r0, [r3, #140]	; 0x8c
     6ca:	f8c3 208c 	str.w	r2, [r3, #140]	; 0x8c
     6ce:	f8c3 4080 	str.w	r4, [r3, #128]	; 0x80
     6d2:	f8c3 008c 	str.w	r0, [r3, #140]	; 0x8c
     6d6:	f8c3 208c 	str.w	r2, [r3, #140]	; 0x8c
     6da:	f8d1 3088 	ldr.w	r3, [r1, #136]	; 0x88
     6de:	4a18      	ldr	r2, [pc, #96]	; (740 <SystemInit+0xb0>)
     6e0:	015b      	lsls	r3, r3, #5
     6e2:	d5fa      	bpl.n	6da <SystemInit+0x4a>
     6e4:	2103      	movs	r1, #3
     6e6:	20aa      	movs	r0, #170	; 0xaa
     6e8:	2355      	movs	r3, #85	; 0x55
     6ea:	f8c2 1080 	str.w	r1, [r2, #128]	; 0x80
     6ee:	f8c2 008c 	str.w	r0, [r2, #140]	; 0x8c
     6f2:	4611      	mov	r1, r2
     6f4:	f8c2 308c 	str.w	r3, [r2, #140]	; 0x8c
     6f8:	f8d1 3088 	ldr.w	r3, [r1, #136]	; 0x88
     6fc:	4a10      	ldr	r2, [pc, #64]	; (740 <SystemInit+0xb0>)
     6fe:	f013 7f40 	tst.w	r3, #50331648	; 0x3000000
     702:	d0f9      	beq.n	6f8 <SystemInit+0x68>
     704:	490f      	ldr	r1, [pc, #60]	; (744 <SystemInit+0xb4>)
     706:	2300      	movs	r3, #0
     708:	2005      	movs	r0, #5
     70a:	f8c2 0108 	str.w	r0, [r2, #264]	; 0x108
     70e:	f8c2 10c4 	str.w	r1, [r2, #196]	; 0xc4
     712:	f8c2 31c8 	str.w	r3, [r2, #456]	; 0x1c8
     716:	6813      	ldr	r3, [r2, #0]
     718:	bc70      	pop	{r4, r5, r6}
     71a:	f423 4370 	bic.w	r3, r3, #61440	; 0xf000
     71e:	f023 033a 	bic.w	r3, r3, #58	; 0x3a
     722:	f443 5340 	orr.w	r3, r3, #12288	; 0x3000
     726:	f043 033a 	orr.w	r3, r3, #58	; 0x3a
     72a:	6013      	str	r3, [r2, #0]
     72c:	4770      	bx	lr
     72e:	f8d2 31a0 	ldr.w	r3, [r2, #416]	; 0x1a0
     732:	0659      	lsls	r1, r3, #25
     734:	d4b5      	bmi.n	6a2 <SystemInit+0x12>
     736:	f8d2 31a0 	ldr.w	r3, [r2, #416]	; 0x1a0
     73a:	0659      	lsls	r1, r3, #25
     73c:	d5f7      	bpl.n	72e <SystemInit+0x9e>
     73e:	e7b0      	b.n	6a2 <SystemInit+0x12>
     740:	400fc000 	andmi	ip, pc, r0
     744:	042887de 	strteq	r8, [r8], #-2014	; 0x7de

00000748 <uart2_irq>:
     748:	b508      	push	{r3, lr}
     74a:	4a15      	ldr	r2, [pc, #84]	; (7a0 <uart2_irq+0x58>)
     74c:	6893      	ldr	r3, [r2, #8]
     74e:	f3c3 0342 	ubfx	r3, r3, #1, #3
     752:	2b01      	cmp	r3, #1
     754:	d01e      	beq.n	794 <uart2_irq+0x4c>
     756:	2b02      	cmp	r3, #2
     758:	d119      	bne.n	78e <uart2_irq+0x46>
     75a:	4b12      	ldr	r3, [pc, #72]	; (7a4 <uart2_irq+0x5c>)
     75c:	6f59      	ldr	r1, [r3, #116]	; 0x74
     75e:	3101      	adds	r1, #1
     760:	d00a      	beq.n	778 <uart2_irq+0x30>
     762:	f8d3 1080 	ldr.w	r1, [r3, #128]	; 0x80
     766:	6f98      	ldr	r0, [r3, #120]	; 0x78
     768:	6008      	str	r0, [r1, #0]
     76a:	f893 10a6 	ldrb.w	r1, [r3, #166]	; 0xa6
     76e:	b919      	cbnz	r1, 778 <uart2_irq+0x30>
     770:	6851      	ldr	r1, [r2, #4]
     772:	f021 0101 	bic.w	r1, r1, #1
     776:	6051      	str	r1, [r2, #4]
     778:	6f18      	ldr	r0, [r3, #112]	; 0x70
     77a:	4b0a      	ldr	r3, [pc, #40]	; (7a4 <uart2_irq+0x5c>)
     77c:	b148      	cbz	r0, 792 <uart2_irq+0x4a>
     77e:	f893 30a6 	ldrb.w	r3, [r3, #166]	; 0xa6
     782:	b12b      	cbz	r3, 790 <uart2_irq+0x48>
     784:	2100      	movs	r1, #0
     786:	4a08      	ldr	r2, [pc, #32]	; (7a8 <uart2_irq+0x60>)
     788:	6813      	ldr	r3, [r2, #0]
     78a:	4798      	blx	r3
     78c:	bd08      	pop	{r3, pc}
     78e:	bd08      	pop	{r3, pc}
     790:	bd08      	pop	{r3, pc}
     792:	bd08      	pop	{r3, pc}
     794:	4a03      	ldr	r2, [pc, #12]	; (7a4 <uart2_irq+0x5c>)
     796:	6f10      	ldr	r0, [r2, #112]	; 0x70
     798:	2800      	cmp	r0, #0
     79a:	d0f9      	beq.n	790 <uart2_irq+0x48>
     79c:	4619      	mov	r1, r3
     79e:	e7f2      	b.n	786 <uart2_irq+0x3e>
     7a0:	40098000 	andmi	r8, r9, r0
     7a4:	10000adc 	ldrdne	r0, [r0], -ip
     7a8:	10000ad8 	ldrdne	r0, [r0], -r8

000007ac <serial_irq_set_internal>:
     7ac:	b570      	push	{r4, r5, r6, lr}
     7ae:	6803      	ldr	r3, [r0, #0]
     7b0:	4c29      	ldr	r4, [pc, #164]	; (858 <Heap_Size+0x58>)
     7b2:	42a3      	cmp	r3, r4
     7b4:	d049      	beq.n	84a <Heap_Size+0x4a>
     7b6:	dd41      	ble.n	83c <Heap_Size+0x3c>
     7b8:	4c28      	ldr	r4, [pc, #160]	; (85c <Heap_Size+0x5c>)
     7ba:	42a3      	cmp	r3, r4
     7bc:	d02a      	beq.n	814 <Heap_Size+0x14>
     7be:	f504 4480 	add.w	r4, r4, #16384	; 0x4000
     7c2:	42a3      	cmp	r3, r4
     7c4:	d144      	bne.n	850 <Heap_Size+0x50>
     7c6:	4c26      	ldr	r4, [pc, #152]	; (860 <Heap_Size+0x60>)
     7c8:	2608      	movs	r6, #8
     7ca:	bb3a      	cbnz	r2, 81c <Heap_Size+0x1c>
     7cc:	2901      	cmp	r1, #1
     7ce:	d00b      	beq.n	7e8 <serial_irq_set_internal+0x3c>
     7d0:	6845      	ldr	r5, [r0, #4]
     7d2:	4a24      	ldr	r2, [pc, #144]	; (864 <Heap_Size+0x64>)
     7d4:	ebc5 05c5 	rsb	r5, r5, r5, lsl #3
     7d8:	eb02 04c5 	add.w	r4, r2, r5, lsl #3
     7dc:	f894 5035 	ldrb.w	r5, [r4, #53]	; 0x35
     7e0:	f894 2036 	ldrb.w	r2, [r4, #54]	; 0x36
     7e4:	42ea      	cmn	r2, r5
     7e6:	d114      	bne.n	812 <Heap_Size+0x12>
     7e8:	2201      	movs	r2, #1
     7ea:	fa02 f501 	lsl.w	r5, r2, r1
     7ee:	f1d1 0101 	rsbs	r1, r1, #1
     7f2:	bf38      	it	cc
     7f4:	2100      	movcc	r1, #0
     7f6:	fa02 f101 	lsl.w	r1, r2, r1
     7fa:	685c      	ldr	r4, [r3, #4]
     7fc:	ea24 0405 	bic.w	r4, r4, r5
     800:	605c      	str	r4, [r3, #4]
     802:	6803      	ldr	r3, [r0, #0]
     804:	685b      	ldr	r3, [r3, #4]
     806:	4219      	tst	r1, r3
     808:	d103      	bne.n	812 <Heap_Size+0x12>
     80a:	40b2      	lsls	r2, r6
     80c:	4b16      	ldr	r3, [pc, #88]	; (868 <Heap_Size+0x68>)
     80e:	f8c3 2080 	str.w	r2, [r3, #128]	; 0x80
     812:	bd70      	pop	{r4, r5, r6, pc}
     814:	4c15      	ldr	r4, [pc, #84]	; (86c <Heap_Size+0x6c>)
     816:	2607      	movs	r6, #7
     818:	2a00      	cmp	r2, #0
     81a:	d0d7      	beq.n	7cc <serial_irq_set_internal+0x20>
     81c:	2501      	movs	r5, #1
     81e:	fa05 f101 	lsl.w	r1, r5, r1
     822:	b276      	sxtb	r6, r6
     824:	4630      	mov	r0, r6
     826:	fa05 f606 	lsl.w	r6, r5, r6
     82a:	685a      	ldr	r2, [r3, #4]
     82c:	430a      	orrs	r2, r1
     82e:	605a      	str	r2, [r3, #4]
     830:	4621      	mov	r1, r4
     832:	f7ff fe05 	bl	440 <NVIC_SetVector>
     836:	4b0c      	ldr	r3, [pc, #48]	; (868 <Heap_Size+0x68>)
     838:	601e      	str	r6, [r3, #0]
     83a:	bd70      	pop	{r4, r5, r6, pc}
     83c:	f5a4 4480 	sub.w	r4, r4, #16384	; 0x4000
     840:	42a3      	cmp	r3, r4
     842:	d105      	bne.n	850 <Heap_Size+0x50>
     844:	4c0a      	ldr	r4, [pc, #40]	; (870 <Heap_Size+0x70>)
     846:	2605      	movs	r6, #5
     848:	e7bf      	b.n	7ca <serial_irq_set_internal+0x1e>
     84a:	4c0a      	ldr	r4, [pc, #40]	; (874 <Heap_Size+0x74>)
     84c:	2606      	movs	r6, #6
     84e:	e7bc      	b.n	7ca <serial_irq_set_internal+0x1e>
     850:	2400      	movs	r4, #0
     852:	4626      	mov	r6, r4
     854:	e7b9      	b.n	7ca <serial_irq_set_internal+0x1e>
     856:	bf00      	nop
     858:	40010000 	andmi	r0, r1, r0
     85c:	40098000 	andmi	r8, r9, r0
     860:	000008dd 	ldrdeq	r0, [r0], -sp
     864:	10000adc 	ldrdne	r0, [r0], -ip
     868:	e000e100 	and	lr, r0, r0, lsl #2
     86c:	00000749 	andeq	r0, r0, r9, asr #14
     870:	00000879 	andeq	r0, r0, r9, ror r8
     874:	00000949 	andeq	r0, r0, r9, asr #18

00000878 <uart0_irq>:
     878:	b508      	push	{r3, lr}
     87a:	4a15      	ldr	r2, [pc, #84]	; (8d0 <uart0_irq+0x58>)
     87c:	6893      	ldr	r3, [r2, #8]
     87e:	f3c3 0342 	ubfx	r3, r3, #1, #3
     882:	2b01      	cmp	r3, #1
     884:	d01d      	beq.n	8c2 <uart0_irq+0x4a>
     886:	2b02      	cmp	r3, #2
     888:	d118      	bne.n	8bc <uart0_irq+0x44>
     88a:	4b12      	ldr	r3, [pc, #72]	; (8d4 <uart0_irq+0x5c>)
     88c:	6859      	ldr	r1, [r3, #4]
     88e:	3101      	adds	r1, #1
     890:	d009      	beq.n	8a6 <uart0_irq+0x2e>
     892:	6919      	ldr	r1, [r3, #16]
     894:	6898      	ldr	r0, [r3, #8]
     896:	6008      	str	r0, [r1, #0]
     898:	f893 1036 	ldrb.w	r1, [r3, #54]	; 0x36
     89c:	b919      	cbnz	r1, 8a6 <uart0_irq+0x2e>
     89e:	6851      	ldr	r1, [r2, #4]
     8a0:	f021 0101 	bic.w	r1, r1, #1
     8a4:	6051      	str	r1, [r2, #4]
     8a6:	6818      	ldr	r0, [r3, #0]
     8a8:	4b0a      	ldr	r3, [pc, #40]	; (8d4 <uart0_irq+0x5c>)
     8aa:	b148      	cbz	r0, 8c0 <uart0_irq+0x48>
     8ac:	f893 3036 	ldrb.w	r3, [r3, #54]	; 0x36
     8b0:	b12b      	cbz	r3, 8be <uart0_irq+0x46>
     8b2:	2100      	movs	r1, #0
     8b4:	4a08      	ldr	r2, [pc, #32]	; (8d8 <uart0_irq+0x60>)
     8b6:	6813      	ldr	r3, [r2, #0]
     8b8:	4798      	blx	r3
     8ba:	bd08      	pop	{r3, pc}
     8bc:	bd08      	pop	{r3, pc}
     8be:	bd08      	pop	{r3, pc}
     8c0:	bd08      	pop	{r3, pc}
     8c2:	4a04      	ldr	r2, [pc, #16]	; (8d4 <uart0_irq+0x5c>)
     8c4:	6810      	ldr	r0, [r2, #0]
     8c6:	2800      	cmp	r0, #0
     8c8:	d0f9      	beq.n	8be <uart0_irq+0x46>
     8ca:	4619      	mov	r1, r3
     8cc:	e7f2      	b.n	8b4 <uart0_irq+0x3c>
     8ce:	bf00      	nop
     8d0:	4000c000 	andmi	ip, r0, r0
     8d4:	10000adc 	ldrdne	r0, [r0], -ip
     8d8:	10000ad8 	ldrdne	r0, [r0], -r8

000008dc <uart3_irq>:
     8dc:	b508      	push	{r3, lr}
     8de:	4a17      	ldr	r2, [pc, #92]	; (93c <uart3_irq+0x60>)
     8e0:	6893      	ldr	r3, [r2, #8]
     8e2:	f3c3 0342 	ubfx	r3, r3, #1, #3
     8e6:	2b01      	cmp	r3, #1
     8e8:	d021      	beq.n	92e <uart3_irq+0x52>
     8ea:	2b02      	cmp	r3, #2
     8ec:	d11c      	bne.n	928 <uart3_irq+0x4c>
     8ee:	4b14      	ldr	r3, [pc, #80]	; (940 <uart3_irq+0x64>)
     8f0:	f8d3 10ac 	ldr.w	r1, [r3, #172]	; 0xac
     8f4:	3101      	adds	r1, #1
     8f6:	d00b      	beq.n	910 <uart3_irq+0x34>
     8f8:	f8d3 10b8 	ldr.w	r1, [r3, #184]	; 0xb8
     8fc:	f8d3 00b0 	ldr.w	r0, [r3, #176]	; 0xb0
     900:	6008      	str	r0, [r1, #0]
     902:	f893 10de 	ldrb.w	r1, [r3, #222]	; 0xde
     906:	b919      	cbnz	r1, 910 <uart3_irq+0x34>
     908:	6851      	ldr	r1, [r2, #4]
     90a:	f021 0101 	bic.w	r1, r1, #1
     90e:	6051      	str	r1, [r2, #4]
     910:	f8d3 00a8 	ldr.w	r0, [r3, #168]	; 0xa8
     914:	4b0a      	ldr	r3, [pc, #40]	; (940 <uart3_irq+0x64>)
     916:	b148      	cbz	r0, 92c <uart3_irq+0x50>
     918:	f893 30de 	ldrb.w	r3, [r3, #222]	; 0xde
     91c:	b12b      	cbz	r3, 92a <uart3_irq+0x4e>
     91e:	2100      	movs	r1, #0
     920:	4a08      	ldr	r2, [pc, #32]	; (944 <uart3_irq+0x68>)
     922:	6813      	ldr	r3, [r2, #0]
     924:	4798      	blx	r3
     926:	bd08      	pop	{r3, pc}
     928:	bd08      	pop	{r3, pc}
     92a:	bd08      	pop	{r3, pc}
     92c:	bd08      	pop	{r3, pc}
     92e:	4a04      	ldr	r2, [pc, #16]	; (940 <uart3_irq+0x64>)
     930:	f8d2 00a8 	ldr.w	r0, [r2, #168]	; 0xa8
     934:	2800      	cmp	r0, #0
     936:	d0f8      	beq.n	92a <uart3_irq+0x4e>
     938:	4619      	mov	r1, r3
     93a:	e7f1      	b.n	920 <uart3_irq+0x44>
     93c:	4009c000 	andmi	ip, r9, r0
     940:	10000adc 	ldrdne	r0, [r0], -ip
     944:	10000ad8 	ldrdne	r0, [r0], -r8

00000948 <uart1_irq>:
     948:	b508      	push	{r3, lr}
     94a:	4a15      	ldr	r2, [pc, #84]	; (9a0 <uart1_irq+0x58>)
     94c:	6893      	ldr	r3, [r2, #8]
     94e:	f3c3 0342 	ubfx	r3, r3, #1, #3
     952:	2b01      	cmp	r3, #1
     954:	d01d      	beq.n	992 <uart1_irq+0x4a>
     956:	2b02      	cmp	r3, #2
     958:	d118      	bne.n	98c <uart1_irq+0x44>
     95a:	4b12      	ldr	r3, [pc, #72]	; (9a4 <uart1_irq+0x5c>)
     95c:	6bd9      	ldr	r1, [r3, #60]	; 0x3c
     95e:	3101      	adds	r1, #1
     960:	d009      	beq.n	976 <uart1_irq+0x2e>
     962:	6c99      	ldr	r1, [r3, #72]	; 0x48
     964:	6c18      	ldr	r0, [r3, #64]	; 0x40
     966:	6008      	str	r0, [r1, #0]
     968:	f893 106e 	ldrb.w	r1, [r3, #110]	; 0x6e
     96c:	b919      	cbnz	r1, 976 <uart1_irq+0x2e>
     96e:	6851      	ldr	r1, [r2, #4]
     970:	f021 0101 	bic.w	r1, r1, #1
     974:	6051      	str	r1, [r2, #4]
     976:	6b98      	ldr	r0, [r3, #56]	; 0x38
     978:	4b0a      	ldr	r3, [pc, #40]	; (9a4 <uart1_irq+0x5c>)
     97a:	b148      	cbz	r0, 990 <uart1_irq+0x48>
     97c:	f893 306e 	ldrb.w	r3, [r3, #110]	; 0x6e
     980:	b12b      	cbz	r3, 98e <uart1_irq+0x46>
     982:	2100      	movs	r1, #0
     984:	4a08      	ldr	r2, [pc, #32]	; (9a8 <uart1_irq+0x60>)
     986:	6813      	ldr	r3, [r2, #0]
     988:	4798      	blx	r3
     98a:	bd08      	pop	{r3, pc}
     98c:	bd08      	pop	{r3, pc}
     98e:	bd08      	pop	{r3, pc}
     990:	bd08      	pop	{r3, pc}
     992:	4a04      	ldr	r2, [pc, #16]	; (9a4 <uart1_irq+0x5c>)
     994:	6b90      	ldr	r0, [r2, #56]	; 0x38
     996:	2800      	cmp	r0, #0
     998:	d0f9      	beq.n	98e <uart1_irq+0x46>
     99a:	4619      	mov	r1, r3
     99c:	e7f2      	b.n	984 <uart1_irq+0x3c>
     99e:	bf00      	nop
     9a0:	40010000 	andmi	r0, r1, r0
     9a4:	10000adc 	ldrdne	r0, [r0], -ip
     9a8:	10000ad8 	ldrdne	r0, [r0], -r8

000009ac <serial_baud>:
     9ac:	e92d 4ff0 	stmdb	sp!, {r4, r5, r6, r7, r8, r9, sl, fp, lr}
     9b0:	6803      	ldr	r3, [r0, #0]
     9b2:	4a88      	ldr	r2, [pc, #544]	; (bd4 <serial_baud+0x228>)
     9b4:	b08d      	sub	sp, #52	; 0x34
     9b6:	4293      	cmp	r3, r2
     9b8:	9009      	str	r0, [sp, #36]	; 0x24
     9ba:	468b      	mov	fp, r1
     9bc:	f300 80f0 	bgt.w	ba0 <serial_baud+0x1f4>
     9c0:	4a85      	ldr	r2, [pc, #532]	; (bd8 <serial_baud+0x22c>)
     9c2:	4293      	cmp	r3, r2
     9c4:	f000 80f7 	beq.w	bb6 <serial_baud+0x20a>
     9c8:	f340 80d7 	ble.w	b7a <serial_baud+0x1ce>
     9cc:	4a83      	ldr	r2, [pc, #524]	; (bdc <serial_baud+0x230>)
     9ce:	4293      	cmp	r3, r2
     9d0:	f000 809f 	beq.w	b12 <serial_baud+0x166>
     9d4:	f502 4280 	add.w	r2, r2, #16384	; 0x4000
     9d8:	4293      	cmp	r3, r2
     9da:	d10c      	bne.n	9f6 <serial_baud+0x4a>
     9dc:	4a80      	ldr	r2, [pc, #512]	; (be0 <serial_baud+0x234>)
     9de:	f8d2 11ac 	ldr.w	r1, [r2, #428]	; 0x1ac
     9e2:	f421 2140 	bic.w	r1, r1, #786432	; 0xc0000
     9e6:	f8c2 11ac 	str.w	r1, [r2, #428]	; 0x1ac
     9ea:	f8d2 11ac 	ldr.w	r1, [r2, #428]	; 0x1ac
     9ee:	f441 2180 	orr.w	r1, r1, #262144	; 0x40000
     9f2:	f8c2 11ac 	str.w	r1, [r2, #428]	; 0x1ac
     9f6:	497b      	ldr	r1, [pc, #492]	; (be4 <serial_baud+0x238>)
     9f8:	ea4f 120b 	mov.w	r2, fp, lsl #4
     9fc:	6809      	ldr	r1, [r1, #0]
     9fe:	9108      	str	r1, [sp, #32]
     a00:	9c08      	ldr	r4, [sp, #32]
     a02:	fbb1 f1f2 	udiv	r1, r1, r2
     a06:	fb02 4211 	mls	r2, r2, r1, r4
     a0a:	b289      	uxth	r1, r1
     a0c:	9104      	str	r1, [sp, #16]
     a0e:	2a00      	cmp	r2, #0
     a10:	f000 80b1 	beq.w	b76 <serial_baud+0x1ca>
     a14:	0061      	lsls	r1, r4, #1
     a16:	00a2      	lsls	r2, r4, #2
     a18:	2301      	movs	r3, #1
     a1a:	9402      	str	r4, [sp, #8]
     a1c:	2400      	movs	r4, #0
     a1e:	910b      	str	r1, [sp, #44]	; 0x2c
     a20:	920a      	str	r2, [sp, #40]	; 0x28
     a22:	9301      	str	r3, [sp, #4]
     a24:	460f      	mov	r7, r1
     a26:	9203      	str	r2, [sp, #12]
     a28:	9306      	str	r3, [sp, #24]
     a2a:	f8cd b01c 	str.w	fp, [sp, #28]
     a2e:	465e      	mov	r6, fp
     a30:	9405      	str	r4, [sp, #20]
     a32:	f8dd a01c 	ldr.w	sl, [sp, #28]
     a36:	9901      	ldr	r1, [sp, #4]
     a38:	f04f 0800 	mov.w	r8, #0
     a3c:	46d1      	mov	r9, sl
     a3e:	b2cd      	uxtb	r5, r1
     a40:	46da      	mov	sl, fp
     a42:	46c3      	mov	fp, r8
     a44:	2f00      	cmp	r7, #0
     a46:	db79      	blt.n	b3c <serial_baud+0x190>
     a48:	9903      	ldr	r1, [sp, #12]
     a4a:	f8dd e004 	ldr.w	lr, [sp, #4]
     a4e:	fbb1 f4f9 	udiv	r4, r1, r9
     a52:	0964      	lsrs	r4, r4, #5
     a54:	3401      	adds	r4, #1
     a56:	f3c4 044f 	ubfx	r4, r4, #1, #16
     a5a:	44de      	add	lr, fp
     a5c:	2c00      	cmp	r4, #0
     a5e:	d166      	bne.n	b2e <serial_baud+0x182>
     a60:	2401      	movs	r4, #1
     a62:	f1b8 0f00 	cmp.w	r8, #0
     a66:	d167      	bne.n	b38 <serial_baud+0x18c>
     a68:	fb04 f00e 	mul.w	r0, r4, lr
     a6c:	9a02      	ldr	r2, [sp, #8]
     a6e:	00c0      	lsls	r0, r0, #3
     a70:	fbb2 f0f0 	udiv	r0, r2, r0
     a74:	3001      	adds	r0, #1
     a76:	ebca 0050 	rsb	r0, sl, r0, lsr #1
     a7a:	f001 fc67 	bl	234c <abs>
     a7e:	42b0      	cmp	r0, r6
     a80:	da06      	bge.n	a90 <serial_baud+0xe4>
     a82:	4550      	cmp	r0, sl
     a84:	d064      	beq.n	b50 <serial_baud+0x1a4>
     a86:	4606      	mov	r6, r0
     a88:	f8cd 8014 	str.w	r8, [sp, #20]
     a8c:	9404      	str	r4, [sp, #16]
     a8e:	9506      	str	r5, [sp, #24]
     a90:	f10b 0b01 	add.w	fp, fp, #1
     a94:	fa5f f88b 	uxtb.w	r8, fp
     a98:	4545      	cmp	r5, r8
     a9a:	44d1      	add	r9, sl
     a9c:	d8d2      	bhi.n	a44 <serial_baud+0x98>
     a9e:	9c01      	ldr	r4, [sp, #4]
     aa0:	46d3      	mov	fp, sl
     aa2:	2c0f      	cmp	r4, #15
     aa4:	f04f 0300 	mov.w	r3, #0
     aa8:	d05d      	beq.n	b66 <serial_baud+0x1ba>
     aaa:	9a02      	ldr	r2, [sp, #8]
     aac:	9908      	ldr	r1, [sp, #32]
     aae:	9c01      	ldr	r4, [sp, #4]
     ab0:	440a      	add	r2, r1
     ab2:	990b      	ldr	r1, [sp, #44]	; 0x2c
     ab4:	3401      	adds	r4, #1
     ab6:	9202      	str	r2, [sp, #8]
     ab8:	9401      	str	r4, [sp, #4]
     aba:	9a03      	ldr	r2, [sp, #12]
     abc:	440f      	add	r7, r1
     abe:	9c0a      	ldr	r4, [sp, #40]	; 0x28
     ac0:	9907      	ldr	r1, [sp, #28]
     ac2:	4422      	add	r2, r4
     ac4:	4459      	add	r1, fp
     ac6:	9203      	str	r2, [sp, #12]
     ac8:	9107      	str	r1, [sp, #28]
     aca:	2b00      	cmp	r3, #0
     acc:	d0b1      	beq.n	a32 <serial_baud+0x86>
     ace:	9b06      	ldr	r3, [sp, #24]
     ad0:	9a05      	ldr	r2, [sp, #20]
     ad2:	9c09      	ldr	r4, [sp, #36]	; 0x24
     ad4:	ea42 1003 	orr.w	r0, r2, r3, lsl #4
     ad8:	6823      	ldr	r3, [r4, #0]
     ada:	b2c0      	uxtb	r0, r0
     adc:	7b19      	ldrb	r1, [r3, #12]
     ade:	9c04      	ldr	r4, [sp, #16]
     ae0:	f041 0180 	orr.w	r1, r1, #128	; 0x80
     ae4:	f3c4 2207 	ubfx	r2, r4, #8, #8
     ae8:	9c09      	ldr	r4, [sp, #36]	; 0x24
     aea:	7319      	strb	r1, [r3, #12]
     aec:	6823      	ldr	r3, [r4, #0]
     aee:	9904      	ldr	r1, [sp, #16]
     af0:	711a      	strb	r2, [r3, #4]
     af2:	6823      	ldr	r3, [r4, #0]
     af4:	fa5f fb81 	uxtb.w	fp, r1
     af8:	f883 b000 	strb.w	fp, [r3]
     afc:	6823      	ldr	r3, [r4, #0]
     afe:	f883 0028 	strb.w	r0, [r3, #40]	; 0x28
     b02:	6823      	ldr	r3, [r4, #0]
     b04:	7b1a      	ldrb	r2, [r3, #12]
     b06:	f002 027f 	and.w	r2, r2, #127	; 0x7f
     b0a:	731a      	strb	r2, [r3, #12]
     b0c:	b00d      	add	sp, #52	; 0x34
     b0e:	e8bd 8ff0 	ldmia.w	sp!, {r4, r5, r6, r7, r8, r9, sl, fp, pc}
     b12:	4a33      	ldr	r2, [pc, #204]	; (be0 <serial_baud+0x234>)
     b14:	f8d2 11ac 	ldr.w	r1, [r2, #428]	; 0x1ac
     b18:	f421 3140 	bic.w	r1, r1, #196608	; 0x30000
     b1c:	f8c2 11ac 	str.w	r1, [r2, #428]	; 0x1ac
     b20:	f8d2 11ac 	ldr.w	r1, [r2, #428]	; 0x1ac
     b24:	f441 3180 	orr.w	r1, r1, #65536	; 0x10000
     b28:	f8c2 11ac 	str.w	r1, [r2, #428]	; 0x1ac
     b2c:	e763      	b.n	9f6 <serial_baud+0x4a>
     b2e:	f1b8 0f00 	cmp.w	r8, #0
     b32:	d099      	beq.n	a68 <serial_baud+0xbc>
     b34:	2c01      	cmp	r4, #1
     b36:	d897      	bhi.n	a68 <serial_baud+0xbc>
     b38:	2402      	movs	r4, #2
     b3a:	e795      	b.n	a68 <serial_baud+0xbc>
     b3c:	fbb7 f4f9 	udiv	r4, r7, r9
     b40:	0924      	lsrs	r4, r4, #4
     b42:	f8dd e004 	ldr.w	lr, [sp, #4]
     b46:	3401      	adds	r4, #1
     b48:	f3c4 044f 	ubfx	r4, r4, #1, #16
     b4c:	44de      	add	lr, fp
     b4e:	e785      	b.n	a5c <serial_baud+0xb0>
     b50:	9404      	str	r4, [sp, #16]
     b52:	9c01      	ldr	r4, [sp, #4]
     b54:	46d3      	mov	fp, sl
     b56:	2c0f      	cmp	r4, #15
     b58:	9506      	str	r5, [sp, #24]
     b5a:	f8cd 8014 	str.w	r8, [sp, #20]
     b5e:	4656      	mov	r6, sl
     b60:	f04f 0301 	mov.w	r3, #1
     b64:	d1a1      	bne.n	aaa <serial_baud+0xfe>
     b66:	9905      	ldr	r1, [sp, #20]
     b68:	9a06      	ldr	r2, [sp, #24]
     b6a:	9c09      	ldr	r4, [sp, #36]	; 0x24
     b6c:	ea41 1002 	orr.w	r0, r1, r2, lsl #4
     b70:	b2c0      	uxtb	r0, r0
     b72:	6823      	ldr	r3, [r4, #0]
     b74:	e7b2      	b.n	adc <serial_baud+0x130>
     b76:	2010      	movs	r0, #16
     b78:	e7b0      	b.n	adc <serial_baud+0x130>
     b7a:	f5a2 4280 	sub.w	r2, r2, #16384	; 0x4000
     b7e:	4293      	cmp	r3, r2
     b80:	f47f af39 	bne.w	9f6 <serial_baud+0x4a>
     b84:	4a16      	ldr	r2, [pc, #88]	; (be0 <serial_baud+0x234>)
     b86:	f8d2 11a8 	ldr.w	r1, [r2, #424]	; 0x1a8
     b8a:	f021 01c0 	bic.w	r1, r1, #192	; 0xc0
     b8e:	f8c2 11a8 	str.w	r1, [r2, #424]	; 0x1a8
     b92:	f8d2 11a8 	ldr.w	r1, [r2, #424]	; 0x1a8
     b96:	f041 0140 	orr.w	r1, r1, #64	; 0x40
     b9a:	f8c2 11a8 	str.w	r1, [r2, #424]	; 0x1a8
     b9e:	e72a      	b.n	9f6 <serial_baud+0x4a>
     ba0:	229b      	movs	r2, #155	; 0x9b
     ba2:	4811      	ldr	r0, [pc, #68]	; (be8 <serial_baud+0x23c>)
     ba4:	4911      	ldr	r1, [pc, #68]	; (bec <serial_baud+0x240>)
     ba6:	f000 fa43 	bl	1030 <mbed_assert_internal>
     baa:	9c09      	ldr	r4, [sp, #36]	; 0x24
     bac:	4a0a      	ldr	r2, [pc, #40]	; (bd8 <serial_baud+0x22c>)
     bae:	6823      	ldr	r3, [r4, #0]
     bb0:	4293      	cmp	r3, r2
     bb2:	f47f af09 	bne.w	9c8 <serial_baud+0x1c>
     bb6:	4a0a      	ldr	r2, [pc, #40]	; (be0 <serial_baud+0x234>)
     bb8:	f8d2 11a8 	ldr.w	r1, [r2, #424]	; 0x1a8
     bbc:	f421 7140 	bic.w	r1, r1, #768	; 0x300
     bc0:	f8c2 11a8 	str.w	r1, [r2, #424]	; 0x1a8
     bc4:	f8d2 11a8 	ldr.w	r1, [r2, #424]	; 0x1a8
     bc8:	f441 7180 	orr.w	r1, r1, #256	; 0x100
     bcc:	f8c2 11a8 	str.w	r1, [r2, #424]	; 0x1a8
     bd0:	e711      	b.n	9f6 <serial_baud+0x4a>
     bd2:	bf00      	nop
     bd4:	4009c000 	andmi	ip, r9, r0
     bd8:	40010000 	andmi	r0, r1, r0
     bdc:	40098000 	andmi	r8, r9, r0
     be0:	400fc000 	andmi	ip, pc, r0
     be4:	100000d0 	ldrdne	r0, [r0], -r0	; <UNPREDICTABLE>
     be8:	000091e8 	andeq	r9, r0, r8, ror #3
     bec:	00009204 	andeq	r9, r0, r4, lsl #4

00000bf0 <serial_format>:
     bf0:	b5f8      	push	{r3, r4, r5, r6, r7, lr}
     bf2:	1e5d      	subs	r5, r3, #1
     bf4:	2d01      	cmp	r5, #1
     bf6:	4607      	mov	r7, r0
     bf8:	460c      	mov	r4, r1
     bfa:	4616      	mov	r6, r2
     bfc:	d904      	bls.n	c08 <Stack_Size+0x8>
     bfe:	4815      	ldr	r0, [pc, #84]	; (c54 <Stack_Size+0x54>)
     c00:	4915      	ldr	r1, [pc, #84]	; (c58 <Stack_Size+0x58>)
     c02:	22fb      	movs	r2, #251	; 0xfb
     c04:	f000 fa14 	bl	1030 <mbed_assert_internal>
     c08:	3c05      	subs	r4, #5
     c0a:	2c03      	cmp	r4, #3
     c0c:	d81c      	bhi.n	c48 <Stack_Size+0x48>
     c0e:	2e04      	cmp	r6, #4
     c10:	d814      	bhi.n	c3c <Stack_Size+0x3c>
     c12:	3e01      	subs	r6, #1
     c14:	b2f6      	uxtb	r6, r6
     c16:	2e03      	cmp	r6, #3
     c18:	d80d      	bhi.n	c36 <Stack_Size+0x36>
     c1a:	4b10      	ldr	r3, [pc, #64]	; (c5c <Stack_Size+0x5c>)
     c1c:	2208      	movs	r2, #8
     c1e:	f853 3026 	ldr.w	r3, [r3, r6, lsl #2]
     c22:	011b      	lsls	r3, r3, #4
     c24:	b2db      	uxtb	r3, r3
     c26:	ea44 0485 	orr.w	r4, r4, r5, lsl #2
     c2a:	4314      	orrs	r4, r2
     c2c:	4323      	orrs	r3, r4
     c2e:	683a      	ldr	r2, [r7, #0]
     c30:	b2db      	uxtb	r3, r3
     c32:	7313      	strb	r3, [r2, #12]
     c34:	bdf8      	pop	{r3, r4, r5, r6, r7, pc}
     c36:	2300      	movs	r3, #0
     c38:	461a      	mov	r2, r3
     c3a:	e7f4      	b.n	c26 <Stack_Size+0x26>
     c3c:	4808      	ldr	r0, [pc, #32]	; (c60 <Stack_Size+0x60>)
     c3e:	4906      	ldr	r1, [pc, #24]	; (c58 <Stack_Size+0x58>)
     c40:	22fe      	movs	r2, #254	; 0xfe
     c42:	f000 f9f5 	bl	1030 <mbed_assert_internal>
     c46:	e7e4      	b.n	c12 <Stack_Size+0x12>
     c48:	4806      	ldr	r0, [pc, #24]	; (c64 <Stack_Size+0x64>)
     c4a:	4903      	ldr	r1, [pc, #12]	; (c58 <Stack_Size+0x58>)
     c4c:	22fc      	movs	r2, #252	; 0xfc
     c4e:	f000 f9ef 	bl	1030 <mbed_assert_internal>
     c52:	e7dc      	b.n	c0e <Stack_Size+0xe>
     c54:	0000926c 	andeq	r9, r0, ip, ror #4
     c58:	00009204 	andeq	r9, r0, r4, lsl #4
     c5c:	0000916c 	andeq	r9, r0, ip, ror #2
     c60:	000092b8 			; <UNDEFINED> instruction: 0x000092b8
     c64:	00009294 	muleq	r0, r4, r2

00000c68 <serial_getc>:
     c68:	b500      	push	{lr}
     c6a:	6802      	ldr	r2, [r0, #0]
     c6c:	7d13      	ldrb	r3, [r2, #20]
     c6e:	07db      	lsls	r3, r3, #31
     c70:	d5fc      	bpl.n	c6c <serial_getc+0x4>
     c72:	6843      	ldr	r3, [r0, #4]
     c74:	4909      	ldr	r1, [pc, #36]	; (c9c <serial_getc+0x34>)
     c76:	ebc3 03c3 	rsb	r3, r3, r3, lsl #3
     c7a:	eb01 03c3 	add.w	r3, r1, r3, lsl #3
     c7e:	6859      	ldr	r1, [r3, #4]
     c80:	7810      	ldrb	r0, [r2, #0]
     c82:	3101      	adds	r1, #1
     c84:	b2c0      	uxtb	r0, r0
     c86:	d007      	beq.n	c98 <serial_getc+0x30>
     c88:	6959      	ldr	r1, [r3, #20]
     c8a:	3304      	adds	r3, #4
     c8c:	685b      	ldr	r3, [r3, #4]
     c8e:	600b      	str	r3, [r1, #0]
     c90:	6853      	ldr	r3, [r2, #4]
     c92:	f043 0301 	orr.w	r3, r3, #1
     c96:	6053      	str	r3, [r2, #4]
     c98:	f85d fb04 	ldr.w	pc, [sp], #4
     c9c:	10000adc 	ldrdne	r0, [r0], -ip

00000ca0 <serial_writable>:
     ca0:	b538      	push	{r3, r4, r5, lr}
     ca2:	6843      	ldr	r3, [r0, #4]
     ca4:	4a18      	ldr	r2, [pc, #96]	; (d08 <serial_writable+0x68>)
     ca6:	ebc3 03c3 	rsb	r3, r3, r3, lsl #3
     caa:	00db      	lsls	r3, r3, #3
     cac:	18d1      	adds	r1, r2, r3
     cae:	4604      	mov	r4, r0
     cb0:	69c8      	ldr	r0, [r1, #28]
     cb2:	3001      	adds	r0, #1
     cb4:	d011      	beq.n	cda <serial_writable+0x3a>
     cb6:	3318      	adds	r3, #24
     cb8:	441a      	add	r2, r3
     cba:	6853      	ldr	r3, [r2, #4]
     cbc:	1d15      	adds	r5, r2, #4
     cbe:	3301      	adds	r3, #1
     cc0:	d016      	beq.n	cf0 <serial_writable+0x50>
     cc2:	696a      	ldr	r2, [r5, #20]
     cc4:	686b      	ldr	r3, [r5, #4]
     cc6:	6812      	ldr	r2, [r2, #0]
     cc8:	421a      	tst	r2, r3
     cca:	d104      	bne.n	cd6 <serial_writable+0x36>
     ccc:	6823      	ldr	r3, [r4, #0]
     cce:	7d18      	ldrb	r0, [r3, #20]
     cd0:	f3c0 1080 	ubfx	r0, r0, #6, #1
     cd4:	bd38      	pop	{r3, r4, r5, pc}
     cd6:	2000      	movs	r0, #0
     cd8:	bd38      	pop	{r3, r4, r5, pc}
     cda:	6823      	ldr	r3, [r4, #0]
     cdc:	7d1b      	ldrb	r3, [r3, #20]
     cde:	069b      	lsls	r3, r3, #26
     ce0:	d40c      	bmi.n	cfc <serial_writable+0x5c>
     ce2:	f891 0034 	ldrb.w	r0, [r1, #52]	; 0x34
     ce6:	280f      	cmp	r0, #15
     ce8:	bf8c      	ite	hi
     cea:	2000      	movhi	r0, #0
     cec:	2001      	movls	r0, #1
     cee:	bd38      	pop	{r3, r4, r5, pc}
     cf0:	4806      	ldr	r0, [pc, #24]	; (d0c <serial_writable+0x6c>)
     cf2:	4907      	ldr	r1, [pc, #28]	; (d10 <serial_writable+0x70>)
     cf4:	222c      	movs	r2, #44	; 0x2c
     cf6:	f000 f99b 	bl	1030 <mbed_assert_internal>
     cfa:	e7e2      	b.n	cc2 <serial_writable+0x22>
     cfc:	2300      	movs	r3, #0
     cfe:	f881 3034 	strb.w	r3, [r1, #52]	; 0x34
     d02:	2001      	movs	r0, #1
     d04:	bd38      	pop	{r3, r4, r5, pc}
     d06:	bf00      	nop
     d08:	10000adc 	ldrdne	r0, [r0], -ip
     d0c:	000090b8 	strheq	r9, [r0], -r8
     d10:	0000933c 	andeq	r9, r0, ip, lsr r3

00000d14 <serial_putc>:
     d14:	b538      	push	{r3, r4, r5, lr}
     d16:	4604      	mov	r4, r0
     d18:	460d      	mov	r5, r1
     d1a:	4620      	mov	r0, r4
     d1c:	f7ff ffc0 	bl	ca0 <serial_writable>
     d20:	2800      	cmp	r0, #0
     d22:	d0fa      	beq.n	d1a <serial_putc+0x6>
     d24:	6823      	ldr	r3, [r4, #0]
     d26:	b2ed      	uxtb	r5, r5
     d28:	701d      	strb	r5, [r3, #0]
     d2a:	6862      	ldr	r2, [r4, #4]
     d2c:	4b05      	ldr	r3, [pc, #20]	; (d44 <serial_putc+0x30>)
     d2e:	ebc2 02c2 	rsb	r2, r2, r2, lsl #3
     d32:	eb03 03c2 	add.w	r3, r3, r2, lsl #3
     d36:	f893 2034 	ldrb.w	r2, [r3, #52]	; 0x34
     d3a:	3201      	adds	r2, #1
     d3c:	f883 2034 	strb.w	r2, [r3, #52]	; 0x34
     d40:	bd38      	pop	{r3, r4, r5, pc}
     d42:	bf00      	nop
     d44:	10000adc 	ldrdne	r0, [r0], -ip

00000d48 <serial_set_flow_control>:
     d48:	e92d 4ff0 	stmdb	sp!, {r4, r5, r6, r7, r8, r9, sl, fp, lr}
     d4c:	4604      	mov	r4, r0
     d4e:	4d45      	ldr	r5, [pc, #276]	; (e64 <serial_set_flow_control+0x11c>)
     d50:	6800      	ldr	r0, [r0, #0]
     d52:	b083      	sub	sp, #12
     d54:	42a8      	cmp	r0, r5
     d56:	460e      	mov	r6, r1
     d58:	4690      	mov	r8, r2
     d5a:	4699      	mov	r9, r3
     d5c:	d043      	beq.n	de6 <serial_set_flow_control+0x9e>
     d5e:	6865      	ldr	r5, [r4, #4]
     d60:	2300      	movs	r3, #0
     d62:	9301      	str	r3, [sp, #4]
     d64:	462a      	mov	r2, r5
     d66:	f8df a108 	ldr.w	sl, [pc, #264]	; e70 <serial_set_flow_control+0x128>
     d6a:	00ef      	lsls	r7, r5, #3
     d6c:	ebc2 02c2 	rsb	r2, r2, r2, lsl #3
     d70:	1b78      	subs	r0, r7, r5
     d72:	f04f 0e00 	mov.w	lr, #0
     d76:	eb0a 00c0 	add.w	r0, sl, r0, lsl #3
     d7a:	eb0a 0cc2 	add.w	ip, sl, r2, lsl #3
     d7e:	f04f 33ff 	mov.w	r3, #4294967295
     d82:	61c3      	str	r3, [r0, #28]
     d84:	6043      	str	r3, [r0, #4]
     d86:	4671      	mov	r1, lr
     d88:	4672      	mov	r2, lr
     d8a:	4620      	mov	r0, r4
     d8c:	f88c e035 	strb.w	lr, [ip, #53]	; 0x35
     d90:	f7ff fd0c 	bl	7ac <serial_irq_set_internal>
     d94:	b916      	cbnz	r6, d9c <serial_set_flow_control+0x54>
     d96:	b003      	add	sp, #12
     d98:	e8bd 8ff0 	ldmia.w	sp!, {r4, r5, r6, r7, r8, r9, sl, fp, pc}
     d9c:	4932      	ldr	r1, [pc, #200]	; (e68 <serial_set_flow_control+0x120>)
     d9e:	4640      	mov	r0, r8
     da0:	f000 fa00 	bl	11a4 <pinmap_find_peripheral>
     da4:	4931      	ldr	r1, [pc, #196]	; (e6c <serial_set_flow_control+0x124>)
     da6:	4683      	mov	fp, r0
     da8:	4648      	mov	r0, r9
     daa:	f000 f9fb 	bl	11a4 <pinmap_find_peripheral>
     dae:	1eb2      	subs	r2, r6, #2
     db0:	2a01      	cmp	r2, #1
     db2:	d938      	bls.n	e26 <serial_set_flow_control+0xde>
     db4:	2e01      	cmp	r6, #1
     db6:	d1ee      	bne.n	d96 <serial_set_flow_control+0x4e>
     db8:	f1b8 3fff 	cmp.w	r8, #4294967295
     dbc:	d0eb      	beq.n	d96 <serial_set_flow_control+0x4e>
     dbe:	4929      	ldr	r1, [pc, #164]	; (e64 <serial_set_flow_control+0x11c>)
     dc0:	6822      	ldr	r2, [r4, #0]
     dc2:	2007      	movs	r0, #7
     dc4:	458b      	cmp	fp, r1
     dc6:	7210      	strb	r0, [r2, #8]
     dc8:	d115      	bne.n	df6 <serial_set_flow_control+0xae>
     dca:	9b01      	ldr	r3, [sp, #4]
     dcc:	b19b      	cbz	r3, df6 <serial_set_flow_control+0xae>
     dce:	7c1b      	ldrb	r3, [r3, #16]
     dd0:	9a01      	ldr	r2, [sp, #4]
     dd2:	4925      	ldr	r1, [pc, #148]	; (e68 <serial_set_flow_control+0x120>)
     dd4:	f043 0340 	orr.w	r3, r3, #64	; 0x40
     dd8:	4640      	mov	r0, r8
     dda:	7413      	strb	r3, [r2, #16]
     ddc:	b003      	add	sp, #12
     dde:	e8bd 4ff0 	ldmia.w	sp!, {r4, r5, r6, r7, r8, r9, sl, fp, lr}
     de2:	f000 b9ad 	b.w	1140 <pinmap_pinout>
     de6:	7c03      	ldrb	r3, [r0, #16]
     de8:	6865      	ldr	r5, [r4, #4]
     dea:	f003 033f 	and.w	r3, r3, #63	; 0x3f
     dee:	7403      	strb	r3, [r0, #16]
     df0:	6862      	ldr	r2, [r4, #4]
     df2:	9001      	str	r0, [sp, #4]
     df4:	e7b7      	b.n	d66 <serial_set_flow_control+0x1e>
     df6:	1b7d      	subs	r5, r7, r5
     df8:	eb0a 00c5 	add.w	r0, sl, r5, lsl #3
     dfc:	4641      	mov	r1, r8
     dfe:	3004      	adds	r0, #4
     e00:	2200      	movs	r2, #0
     e02:	f000 f971 	bl	10e8 <gpio_init_out_ex>
     e06:	6862      	ldr	r2, [r4, #4]
     e08:	2501      	movs	r5, #1
     e0a:	ebc2 02c2 	rsb	r2, r2, r2, lsl #3
     e0e:	eb0a 03c2 	add.w	r3, sl, r2, lsl #3
     e12:	4620      	mov	r0, r4
     e14:	462a      	mov	r2, r5
     e16:	2100      	movs	r1, #0
     e18:	f883 5035 	strb.w	r5, [r3, #53]	; 0x35
     e1c:	b003      	add	sp, #12
     e1e:	e8bd 4ff0 	ldmia.w	sp!, {r4, r5, r6, r7, r8, r9, sl, fp, lr}
     e22:	f7ff bcc3 	b.w	7ac <serial_irq_set_internal>
     e26:	f1b9 3fff 	cmp.w	r9, #4294967295
     e2a:	d009      	beq.n	e40 <serial_set_flow_control+0xf8>
     e2c:	4a0d      	ldr	r2, [pc, #52]	; (e64 <serial_set_flow_control+0x11c>)
     e2e:	4290      	cmp	r0, r2
     e30:	d00c      	beq.n	e4c <serial_set_flow_control+0x104>
     e32:	1b78      	subs	r0, r7, r5
     e34:	eb0a 00c0 	add.w	r0, sl, r0, lsl #3
     e38:	4649      	mov	r1, r9
     e3a:	301c      	adds	r0, #28
     e3c:	f000 f920 	bl	1080 <gpio_init_in>
     e40:	2e03      	cmp	r6, #3
     e42:	d1a8      	bne.n	d96 <serial_set_flow_control+0x4e>
     e44:	f1b8 3fff 	cmp.w	r8, #4294967295
     e48:	d1b9      	bne.n	dbe <serial_set_flow_control+0x76>
     e4a:	e7a4      	b.n	d96 <serial_set_flow_control+0x4e>
     e4c:	9b01      	ldr	r3, [sp, #4]
     e4e:	2b00      	cmp	r3, #0
     e50:	d0ef      	beq.n	e32 <serial_set_flow_control+0xea>
     e52:	7c1a      	ldrb	r2, [r3, #16]
     e54:	4648      	mov	r0, r9
     e56:	f042 0280 	orr.w	r2, r2, #128	; 0x80
     e5a:	741a      	strb	r2, [r3, #16]
     e5c:	4903      	ldr	r1, [pc, #12]	; (e6c <serial_set_flow_control+0x124>)
     e5e:	f000 f96f 	bl	1140 <pinmap_pinout>
     e62:	e7ed      	b.n	e40 <serial_set_flow_control+0xf8>
     e64:	40010000 	andmi	r0, r1, r0
     e68:	00009148 	andeq	r9, r0, r8, asr #2
     e6c:	00009424 	andeq	r9, r0, r4, lsr #8
     e70:	10000adc 	ldrdne	r0, [r0], -ip

00000e74 <serial_init>:
     e74:	e92d 47f0 	stmdb	sp!, {r4, r5, r6, r7, r8, r9, sl, lr}
     e78:	460f      	mov	r7, r1
     e7a:	4605      	mov	r5, r0
     e7c:	4608      	mov	r0, r1
     e7e:	4961      	ldr	r1, [pc, #388]	; (1004 <serial_init+0x190>)
     e80:	4616      	mov	r6, r2
     e82:	f000 f99d 	bl	11c0 <pinmap_peripheral>
     e86:	4960      	ldr	r1, [pc, #384]	; (1008 <serial_init+0x194>)
     e88:	4604      	mov	r4, r0
     e8a:	4630      	mov	r0, r6
     e8c:	f000 f998 	bl	11c0 <pinmap_peripheral>
     e90:	4601      	mov	r1, r0
     e92:	4620      	mov	r0, r4
     e94:	f000 f974 	bl	1180 <pinmap_merge>
     e98:	1c41      	adds	r1, r0, #1
     e9a:	4604      	mov	r4, r0
     e9c:	f000 80ab 	beq.w	ff6 <serial_init+0x182>
     ea0:	4b5a      	ldr	r3, [pc, #360]	; (100c <serial_init+0x198>)
     ea2:	6028      	str	r0, [r5, #0]
     ea4:	4298      	cmp	r0, r3
     ea6:	f000 8083 	beq.w	fb0 <serial_init+0x13c>
     eaa:	d953      	bls.n	f54 <serial_init+0xe0>
     eac:	4b58      	ldr	r3, [pc, #352]	; (1010 <serial_init+0x19c>)
     eae:	4298      	cmp	r0, r3
     eb0:	d076      	beq.n	fa0 <serial_init+0x12c>
     eb2:	f503 4380 	add.w	r3, r3, #16384	; 0x4000
     eb6:	4298      	cmp	r0, r3
     eb8:	d106      	bne.n	ec8 <serial_init+0x54>
     eba:	4b56      	ldr	r3, [pc, #344]	; (1014 <serial_init+0x1a0>)
     ebc:	f8d3 20c4 	ldr.w	r2, [r3, #196]	; 0xc4
     ec0:	f042 7200 	orr.w	r2, r2, #33554432	; 0x2000000
     ec4:	f8c3 20c4 	str.w	r2, [r3, #196]	; 0xc4
     ec8:	f04f 0901 	mov.w	r9, #1
     ecc:	f884 9008 	strb.w	r9, [r4, #8]
     ed0:	682b      	ldr	r3, [r5, #0]
     ed2:	f04f 0800 	mov.w	r8, #0
     ed6:	f8c3 8004 	str.w	r8, [r3, #4]
     eda:	4628      	mov	r0, r5
     edc:	f44f 5116 	mov.w	r1, #9600	; 0x2580
     ee0:	f7ff fd64 	bl	9ac <serial_baud>
     ee4:	4642      	mov	r2, r8
     ee6:	464b      	mov	r3, r9
     ee8:	4628      	mov	r0, r5
     eea:	2108      	movs	r1, #8
     eec:	f7ff fe80 	bl	bf0 <serial_format>
     ef0:	4638      	mov	r0, r7
     ef2:	4944      	ldr	r1, [pc, #272]	; (1004 <serial_init+0x190>)
     ef4:	f000 f924 	bl	1140 <pinmap_pinout>
     ef8:	4630      	mov	r0, r6
     efa:	4943      	ldr	r1, [pc, #268]	; (1008 <serial_init+0x194>)
     efc:	f000 f920 	bl	1140 <pinmap_pinout>
     f00:	1c7a      	adds	r2, r7, #1
     f02:	d003      	beq.n	f0c <serial_init+0x98>
     f04:	4638      	mov	r0, r7
     f06:	4641      	mov	r1, r8
     f08:	f000 fa24 	bl	1354 <pin_mode>
     f0c:	1c73      	adds	r3, r6, #1
     f0e:	d003      	beq.n	f18 <serial_init+0xa4>
     f10:	4630      	mov	r0, r6
     f12:	2100      	movs	r1, #0
     f14:	f000 fa1e 	bl	1354 <pin_mode>
     f18:	4b3c      	ldr	r3, [pc, #240]	; (100c <serial_init+0x198>)
     f1a:	429c      	cmp	r4, r3
     f1c:	d050      	beq.n	fc0 <serial_init+0x14c>
     f1e:	d925      	bls.n	f6c <serial_init+0xf8>
     f20:	4b3b      	ldr	r3, [pc, #236]	; (1010 <serial_init+0x19c>)
     f22:	429c      	cmp	r4, r3
     f24:	d064      	beq.n	ff0 <serial_init+0x17c>
     f26:	f503 4380 	add.w	r3, r3, #16384	; 0x4000
     f2a:	429c      	cmp	r4, r3
     f2c:	d14b      	bne.n	fc6 <serial_init+0x152>
     f2e:	2303      	movs	r3, #3
     f30:	606b      	str	r3, [r5, #4]
     f32:	4939      	ldr	r1, [pc, #228]	; (1018 <serial_init+0x1a4>)
     f34:	ebc3 03c3 	rsb	r3, r3, r3, lsl #3
     f38:	f04f 34ff 	mov.w	r4, #4294967295
     f3c:	4628      	mov	r0, r5
     f3e:	eb01 05c3 	add.w	r5, r1, r3, lsl #3
     f42:	4622      	mov	r2, r4
     f44:	4623      	mov	r3, r4
     f46:	606c      	str	r4, [r5, #4]
     f48:	61ec      	str	r4, [r5, #28]
     f4a:	2100      	movs	r1, #0
     f4c:	e8bd 47f0 	ldmia.w	sp!, {r4, r5, r6, r7, r8, r9, sl, lr}
     f50:	f7ff befa 	b.w	d48 <serial_set_flow_control>
     f54:	f5a3 4380 	sub.w	r3, r3, #16384	; 0x4000
     f58:	4298      	cmp	r0, r3
     f5a:	d1b5      	bne.n	ec8 <serial_init+0x54>
     f5c:	4b2d      	ldr	r3, [pc, #180]	; (1014 <serial_init+0x1a0>)
     f5e:	f8d3 20c4 	ldr.w	r2, [r3, #196]	; 0xc4
     f62:	f042 0208 	orr.w	r2, r2, #8
     f66:	f8c3 20c4 	str.w	r2, [r3, #196]	; 0xc4
     f6a:	e7ad      	b.n	ec8 <serial_init+0x54>
     f6c:	f5a3 4380 	sub.w	r3, r3, #16384	; 0x4000
     f70:	429c      	cmp	r4, r3
     f72:	d128      	bne.n	fc6 <serial_init+0x152>
     f74:	4e28      	ldr	r6, [pc, #160]	; (1018 <serial_init+0x1a4>)
     f76:	f04f 34ff 	mov.w	r4, #4294967295
     f7a:	2100      	movs	r1, #0
     f7c:	6069      	str	r1, [r5, #4]
     f7e:	4622      	mov	r2, r4
     f80:	4623      	mov	r3, r4
     f82:	4628      	mov	r0, r5
     f84:	6074      	str	r4, [r6, #4]
     f86:	61f4      	str	r4, [r6, #28]
     f88:	f7ff fede 	bl	d48 <serial_set_flow_control>
     f8c:	4b23      	ldr	r3, [pc, #140]	; (101c <serial_init+0x1a8>)
     f8e:	2401      	movs	r4, #1
     f90:	4629      	mov	r1, r5
     f92:	601c      	str	r4, [r3, #0]
     f94:	4822      	ldr	r0, [pc, #136]	; (1020 <serial_init+0x1ac>)
     f96:	2208      	movs	r2, #8
     f98:	e8bd 47f0 	ldmia.w	sp!, {r4, r5, r6, r7, r8, r9, sl, lr}
     f9c:	f001 bfae 	b.w	2efc <memcpy>
     fa0:	4b1c      	ldr	r3, [pc, #112]	; (1014 <serial_init+0x1a0>)
     fa2:	f8d3 20c4 	ldr.w	r2, [r3, #196]	; 0xc4
     fa6:	f042 7280 	orr.w	r2, r2, #16777216	; 0x1000000
     faa:	f8c3 20c4 	str.w	r2, [r3, #196]	; 0xc4
     fae:	e78b      	b.n	ec8 <serial_init+0x54>
     fb0:	4b18      	ldr	r3, [pc, #96]	; (1014 <serial_init+0x1a0>)
     fb2:	f8d3 20c4 	ldr.w	r2, [r3, #196]	; 0xc4
     fb6:	f042 0210 	orr.w	r2, r2, #16
     fba:	f8c3 20c4 	str.w	r2, [r3, #196]	; 0xc4
     fbe:	e783      	b.n	ec8 <serial_init+0x54>
     fc0:	2301      	movs	r3, #1
     fc2:	606b      	str	r3, [r5, #4]
     fc4:	e7b5      	b.n	f32 <serial_init+0xbe>
     fc6:	686b      	ldr	r3, [r5, #4]
     fc8:	4913      	ldr	r1, [pc, #76]	; (1018 <serial_init+0x1a4>)
     fca:	ebc3 03c3 	rsb	r3, r3, r3, lsl #3
     fce:	f04f 36ff 	mov.w	r6, #4294967295
     fd2:	eb01 07c3 	add.w	r7, r1, r3, lsl #3
     fd6:	4632      	mov	r2, r6
     fd8:	4633      	mov	r3, r6
     fda:	4628      	mov	r0, r5
     fdc:	2100      	movs	r1, #0
     fde:	607e      	str	r6, [r7, #4]
     fe0:	61fe      	str	r6, [r7, #28]
     fe2:	f7ff feb1 	bl	d48 <serial_set_flow_control>
     fe6:	4b0f      	ldr	r3, [pc, #60]	; (1024 <serial_init+0x1b0>)
     fe8:	429c      	cmp	r4, r3
     fea:	d0cf      	beq.n	f8c <serial_init+0x118>
     fec:	e8bd 87f0 	ldmia.w	sp!, {r4, r5, r6, r7, r8, r9, sl, pc}
     ff0:	2302      	movs	r3, #2
     ff2:	606b      	str	r3, [r5, #4]
     ff4:	e79d      	b.n	f32 <serial_init+0xbe>
     ff6:	480c      	ldr	r0, [pc, #48]	; (1028 <serial_init+0x1b4>)
     ff8:	490c      	ldr	r1, [pc, #48]	; (102c <serial_init+0x1b8>)
     ffa:	225c      	movs	r2, #92	; 0x5c
     ffc:	f000 f818 	bl	1030 <mbed_assert_internal>
    1000:	602c      	str	r4, [r5, #0]
    1002:	e761      	b.n	ec8 <serial_init+0x54>
    1004:	000093b8 			; <UNDEFINED> instruction: 0x000093b8
    1008:	0000917c 	andeq	r9, r0, ip, ror r1
    100c:	40010000 	andmi	r0, r1, r0
    1010:	40098000 	andmi	r8, r9, r0
    1014:	400fc000 	andmi	ip, pc, r0
    1018:	10000adc 	ldrdne	r0, [r0], -ip
    101c:	10000ad4 	ldrdne	r0, [r0], -r4
    1020:	10001410 	andne	r1, r0, r0, lsl r4
    1024:	4000c000 	andmi	ip, r0, r0
    1028:	000093a8 	andeq	r9, r0, r8, lsr #7
    102c:	00009204 	andeq	r9, r0, r4, lsl #4

00001030 <mbed_assert_internal>:
    1030:	b510      	push	{r4, lr}
    1032:	4b08      	ldr	r3, [pc, #32]	; (1054 <mbed_assert_internal+0x24>)
    1034:	4604      	mov	r4, r0
    1036:	6818      	ldr	r0, [r3, #0]
    1038:	b082      	sub	sp, #8
    103a:	460b      	mov	r3, r1
    103c:	68c0      	ldr	r0, [r0, #12]
    103e:	4906      	ldr	r1, [pc, #24]	; (1058 <mbed_assert_internal+0x28>)
    1040:	9200      	str	r2, [sp, #0]
    1042:	4622      	mov	r2, r4
    1044:	f001 faf0 	bl	2628 <fprintf>
    1048:	b002      	add	sp, #8
    104a:	e8bd 4010 	ldmia.w	sp!, {r4, lr}
    104e:	f7ff b971 	b.w	334 <mbed_die>
    1052:	bf00      	nop
    1054:	10000508 	andne	r0, r0, r8, lsl #10
    1058:	00009448 	andeq	r9, r0, r8, asr #8

0000105c <error>:
    105c:	b40f      	push	{r0, r1, r2, r3}
    105e:	b500      	push	{lr}
    1060:	4a06      	ldr	r2, [pc, #24]	; (107c <error+0x20>)
    1062:	b083      	sub	sp, #12
    1064:	ab04      	add	r3, sp, #16
    1066:	6812      	ldr	r2, [r2, #0]
    1068:	f853 1b04 	ldr.w	r1, [r3], #4
    106c:	68d0      	ldr	r0, [r2, #12]
    106e:	461a      	mov	r2, r3
    1070:	9301      	str	r3, [sp, #4]
    1072:	f003 fbed 	bl	4850 <vfprintf>
    1076:	2001      	movs	r0, #1
    1078:	f001 f972 	bl	2360 <exit>
    107c:	10000508 	andne	r0, r0, r8, lsl #10

00001080 <gpio_init_in>:
    1080:	b538      	push	{r3, r4, r5, lr}
    1082:	460d      	mov	r5, r1
    1084:	4604      	mov	r4, r0
    1086:	f000 f8ff 	bl	1288 <gpio_init>
    108a:	3501      	adds	r5, #1
    108c:	d009      	beq.n	10a2 <gpio_init_in+0x22>
    108e:	4620      	mov	r0, r4
    1090:	2100      	movs	r1, #0
    1092:	f000 f915 	bl	12c0 <gpio_dir>
    1096:	4620      	mov	r0, r4
    1098:	2103      	movs	r1, #3
    109a:	e8bd 4038 	ldmia.w	sp!, {r3, r4, r5, lr}
    109e:	f000 b90b 	b.w	12b8 <gpio_mode>
    10a2:	bd38      	pop	{r3, r4, r5, pc}

000010a4 <gpio_init_out>:
    10a4:	b538      	push	{r3, r4, r5, lr}
    10a6:	460d      	mov	r5, r1
    10a8:	4604      	mov	r4, r0
    10aa:	f000 f8ed 	bl	1288 <gpio_init>
    10ae:	3501      	adds	r5, #1
    10b0:	d00f      	beq.n	10d2 <gpio_init_out+0x2e>
    10b2:	6823      	ldr	r3, [r4, #0]
    10b4:	3301      	adds	r3, #1
    10b6:	d00d      	beq.n	10d4 <gpio_init_out+0x30>
    10b8:	6923      	ldr	r3, [r4, #16]
    10ba:	6862      	ldr	r2, [r4, #4]
    10bc:	4620      	mov	r0, r4
    10be:	601a      	str	r2, [r3, #0]
    10c0:	2101      	movs	r1, #1
    10c2:	f000 f8fd 	bl	12c0 <gpio_dir>
    10c6:	4620      	mov	r0, r4
    10c8:	2102      	movs	r1, #2
    10ca:	e8bd 4038 	ldmia.w	sp!, {r3, r4, r5, lr}
    10ce:	f000 b8f3 	b.w	12b8 <gpio_mode>
    10d2:	bd38      	pop	{r3, r4, r5, pc}
    10d4:	4802      	ldr	r0, [pc, #8]	; (10e0 <gpio_init_out+0x3c>)
    10d6:	4903      	ldr	r1, [pc, #12]	; (10e4 <gpio_init_out+0x40>)
    10d8:	2224      	movs	r2, #36	; 0x24
    10da:	f7ff ffa9 	bl	1030 <mbed_assert_internal>
    10de:	e7eb      	b.n	10b8 <gpio_init_out+0x14>
    10e0:	000090b8 	strheq	r9, [r0], -r8
    10e4:	000090d0 	ldrdeq	r9, [r0], -r0

000010e8 <gpio_init_out_ex>:
    10e8:	b570      	push	{r4, r5, r6, lr}
    10ea:	460d      	mov	r5, r1
    10ec:	4616      	mov	r6, r2
    10ee:	4604      	mov	r4, r0
    10f0:	f000 f8ca 	bl	1288 <gpio_init>
    10f4:	3501      	adds	r5, #1
    10f6:	d014      	beq.n	1122 <gpio_init_out_ex+0x3a>
    10f8:	6823      	ldr	r3, [r4, #0]
    10fa:	3301      	adds	r3, #1
    10fc:	d012      	beq.n	1124 <gpio_init_out_ex+0x3c>
    10fe:	b966      	cbnz	r6, 111a <gpio_init_out_ex+0x32>
    1100:	6923      	ldr	r3, [r4, #16]
    1102:	6862      	ldr	r2, [r4, #4]
    1104:	601a      	str	r2, [r3, #0]
    1106:	4620      	mov	r0, r4
    1108:	2101      	movs	r1, #1
    110a:	f000 f8d9 	bl	12c0 <gpio_dir>
    110e:	4620      	mov	r0, r4
    1110:	2102      	movs	r1, #2
    1112:	e8bd 4070 	ldmia.w	sp!, {r4, r5, r6, lr}
    1116:	f000 b8cf 	b.w	12b8 <gpio_mode>
    111a:	68e3      	ldr	r3, [r4, #12]
    111c:	6862      	ldr	r2, [r4, #4]
    111e:	601a      	str	r2, [r3, #0]
    1120:	e7f1      	b.n	1106 <gpio_init_out_ex+0x1e>
    1122:	bd70      	pop	{r4, r5, r6, pc}
    1124:	4803      	ldr	r0, [pc, #12]	; (1134 <gpio_init_out_ex+0x4c>)
    1126:	4904      	ldr	r1, [pc, #16]	; (1138 <gpio_init_out_ex+0x50>)
    1128:	2224      	movs	r2, #36	; 0x24
    112a:	f7ff ff81 	bl	1030 <mbed_assert_internal>
    112e:	2e00      	cmp	r6, #0
    1130:	d0e6      	beq.n	1100 <gpio_init_out_ex+0x18>
    1132:	e7f2      	b.n	111a <gpio_init_out_ex+0x32>
    1134:	000090b8 	strheq	r9, [r0], -r8
    1138:	000090d0 	ldrdeq	r9, [r0], -r0

0000113c <mbed_interface_connected>:
    113c:	f000 b866 	b.w	120c <semihost_connected>

00001140 <pinmap_pinout>:
    1140:	1c43      	adds	r3, r0, #1
    1142:	b510      	push	{r4, lr}
    1144:	4604      	mov	r4, r0
    1146:	d018      	beq.n	117a <pinmap_pinout+0x3a>
    1148:	680b      	ldr	r3, [r1, #0]
    114a:	1c58      	adds	r0, r3, #1
    114c:	d104      	bne.n	1158 <pinmap_pinout+0x18>
    114e:	e00f      	b.n	1170 <pinmap_pinout+0x30>
    1150:	f851 3f0c 	ldr.w	r3, [r1, #12]!
    1154:	1c5a      	adds	r2, r3, #1
    1156:	d00b      	beq.n	1170 <pinmap_pinout+0x30>
    1158:	429c      	cmp	r4, r3
    115a:	d1f9      	bne.n	1150 <pinmap_pinout+0x10>
    115c:	4620      	mov	r0, r4
    115e:	6889      	ldr	r1, [r1, #8]
    1160:	f000 f8d0 	bl	1304 <pin_function>
    1164:	4620      	mov	r0, r4
    1166:	2102      	movs	r1, #2
    1168:	e8bd 4010 	ldmia.w	sp!, {r4, lr}
    116c:	f000 b8f2 	b.w	1354 <pin_mode>
    1170:	4802      	ldr	r0, [pc, #8]	; (117c <pinmap_pinout+0x3c>)
    1172:	e8bd 4010 	ldmia.w	sp!, {r4, lr}
    1176:	f7ff bf71 	b.w	105c <error>
    117a:	bd10      	pop	{r4, pc}
    117c:	0000947c 	andeq	r9, r0, ip, ror r4

00001180 <pinmap_merge>:
    1180:	4288      	cmp	r0, r1
    1182:	b508      	push	{r3, lr}
    1184:	d00a      	beq.n	119c <pinmap_merge+0x1c>
    1186:	1c43      	adds	r3, r0, #1
    1188:	d007      	beq.n	119a <pinmap_merge+0x1a>
    118a:	3101      	adds	r1, #1
    118c:	d006      	beq.n	119c <pinmap_merge+0x1c>
    118e:	4804      	ldr	r0, [pc, #16]	; (11a0 <pinmap_merge+0x20>)
    1190:	f7ff ff64 	bl	105c <error>
    1194:	f04f 30ff 	mov.w	r0, #4294967295
    1198:	bd08      	pop	{r3, pc}
    119a:	4608      	mov	r0, r1
    119c:	bd08      	pop	{r3, pc}
    119e:	bf00      	nop
    11a0:	00009490 	muleq	r0, r0, r4

000011a4 <pinmap_find_peripheral>:
    11a4:	680b      	ldr	r3, [r1, #0]
    11a6:	1c5a      	adds	r2, r3, #1
    11a8:	d104      	bne.n	11b4 <pinmap_find_peripheral+0x10>
    11aa:	e007      	b.n	11bc <pinmap_find_peripheral+0x18>
    11ac:	f851 3f0c 	ldr.w	r3, [r1, #12]!
    11b0:	1c5a      	adds	r2, r3, #1
    11b2:	d003      	beq.n	11bc <pinmap_find_peripheral+0x18>
    11b4:	4283      	cmp	r3, r0
    11b6:	d1f9      	bne.n	11ac <pinmap_find_peripheral+0x8>
    11b8:	6848      	ldr	r0, [r1, #4]
    11ba:	4770      	bx	lr
    11bc:	4618      	mov	r0, r3
    11be:	4770      	bx	lr

000011c0 <pinmap_peripheral>:
    11c0:	b508      	push	{r3, lr}
    11c2:	1c43      	adds	r3, r0, #1
    11c4:	d00c      	beq.n	11e0 <pinmap_peripheral+0x20>
    11c6:	680b      	ldr	r3, [r1, #0]
    11c8:	1c5a      	adds	r2, r3, #1
    11ca:	d104      	bne.n	11d6 <pinmap_peripheral+0x16>
    11cc:	e009      	b.n	11e2 <pinmap_peripheral+0x22>
    11ce:	f851 3f0c 	ldr.w	r3, [r1, #12]!
    11d2:	1c5a      	adds	r2, r3, #1
    11d4:	d005      	beq.n	11e2 <pinmap_peripheral+0x22>
    11d6:	4298      	cmp	r0, r3
    11d8:	d1f9      	bne.n	11ce <pinmap_peripheral+0xe>
    11da:	6848      	ldr	r0, [r1, #4]
    11dc:	1c41      	adds	r1, r0, #1
    11de:	d000      	beq.n	11e2 <pinmap_peripheral+0x22>
    11e0:	bd08      	pop	{r3, pc}
    11e2:	4803      	ldr	r0, [pc, #12]	; (11f0 <pinmap_peripheral+0x30>)
    11e4:	f7ff ff3a 	bl	105c <error>
    11e8:	f04f 30ff 	mov.w	r0, #4294967295
    11ec:	e7f8      	b.n	11e0 <pinmap_peripheral+0x20>
    11ee:	bf00      	nop
    11f0:	000094a4 	andeq	r9, r0, r4, lsr #9

000011f4 <semihost_exit>:
    11f4:	b530      	push	{r4, r5, lr}
    11f6:	b085      	sub	sp, #20
    11f8:	2418      	movs	r4, #24
    11fa:	466d      	mov	r5, sp
    11fc:	4620      	mov	r0, r4
    11fe:	4629      	mov	r1, r5
    1200:	beab      	bkpt	0x00ab
    1202:	4604      	mov	r4, r0
    1204:	4620      	mov	r0, r4
    1206:	b005      	add	sp, #20
    1208:	bd30      	pop	{r4, r5, pc}
    120a:	bf00      	nop

0000120c <semihost_connected>:
    120c:	4b02      	ldr	r3, [pc, #8]	; (1218 <semihost_connected+0xc>)
    120e:	6818      	ldr	r0, [r3, #0]
    1210:	f000 0001 	and.w	r0, r0, #1
    1214:	4770      	bx	lr
    1216:	bf00      	nop
    1218:	e000edf0 	strd	lr, [r0], -r0

0000121c <wait_us>:
    121c:	b538      	push	{r3, r4, r5, lr}
    121e:	4605      	mov	r5, r0
    1220:	f000 f908 	bl	1434 <us_ticker_read>
    1224:	4604      	mov	r4, r0
    1226:	f000 f905 	bl	1434 <us_ticker_read>
    122a:	1b00      	subs	r0, r0, r4
    122c:	42a8      	cmp	r0, r5
    122e:	d3fa      	bcc.n	1226 <wait_us+0xa>
    1230:	bd38      	pop	{r3, r4, r5, pc}
    1232:	bf00      	nop

00001234 <wait>:
    1234:	b508      	push	{r3, lr}
    1236:	4904      	ldr	r1, [pc, #16]	; (1248 <wait+0x14>)
    1238:	f006 faac 	bl	7794 <__aeabi_fmul>
    123c:	f006 fbfa 	bl	7a34 <__aeabi_f2iz>
    1240:	e8bd 4008 	ldmia.w	sp!, {r3, lr}
    1244:	f7ff bfea 	b.w	121c <wait_us>
    1248:	49742400 	ldmdbmi	r4!, {sl, sp}^

0000124c <wait_ms>:
    124c:	f44f 737a 	mov.w	r3, #1000	; 0x3e8
    1250:	fb03 f000 	mul.w	r0, r3, r0
    1254:	f7ff bfe2 	b.w	121c <wait_us>

00001258 <gpio_set>:
    1258:	1c43      	adds	r3, r0, #1
    125a:	b510      	push	{r4, lr}
    125c:	4604      	mov	r4, r0
    125e:	d008      	beq.n	1272 <gpio_set+0x1a>
    1260:	4620      	mov	r0, r4
    1262:	2100      	movs	r1, #0
    1264:	f000 f84e 	bl	1304 <pin_function>
    1268:	f004 041f 	and.w	r4, r4, #31
    126c:	2001      	movs	r0, #1
    126e:	40a0      	lsls	r0, r4
    1270:	bd10      	pop	{r4, pc}
    1272:	4803      	ldr	r0, [pc, #12]	; (1280 <gpio_set+0x28>)
    1274:	4903      	ldr	r1, [pc, #12]	; (1284 <gpio_set+0x2c>)
    1276:	2215      	movs	r2, #21
    1278:	f7ff feda 	bl	1030 <mbed_assert_internal>
    127c:	e7f0      	b.n	1260 <gpio_set+0x8>
    127e:	bf00      	nop
    1280:	000094e4 	andeq	r9, r0, r4, ror #9
    1284:	000094f8 	strdeq	r9, [r0], -r8

00001288 <gpio_init>:
    1288:	b538      	push	{r3, r4, r5, lr}
    128a:	4604      	mov	r4, r0
    128c:	1c4b      	adds	r3, r1, #1
    128e:	460d      	mov	r5, r1
    1290:	6021      	str	r1, [r4, #0]
    1292:	d00f      	beq.n	12b4 <gpio_init+0x2c>
    1294:	4608      	mov	r0, r1
    1296:	f7ff ffdf 	bl	1258 <gpio_set>
    129a:	f025 051f 	bic.w	r5, r5, #31
    129e:	f105 0118 	add.w	r1, r5, #24
    12a2:	f105 021c 	add.w	r2, r5, #28
    12a6:	f105 0314 	add.w	r3, r5, #20
    12aa:	6060      	str	r0, [r4, #4]
    12ac:	60a5      	str	r5, [r4, #8]
    12ae:	60e1      	str	r1, [r4, #12]
    12b0:	6122      	str	r2, [r4, #16]
    12b2:	6163      	str	r3, [r4, #20]
    12b4:	bd38      	pop	{r3, r4, r5, pc}
    12b6:	bf00      	nop

000012b8 <gpio_mode>:
    12b8:	6800      	ldr	r0, [r0, #0]
    12ba:	f000 b84b 	b.w	1354 <pin_mode>
    12be:	bf00      	nop

000012c0 <gpio_dir>:
    12c0:	b538      	push	{r3, r4, r5, lr}
    12c2:	6803      	ldr	r3, [r0, #0]
    12c4:	4604      	mov	r4, r0
    12c6:	3301      	adds	r3, #1
    12c8:	460d      	mov	r5, r1
    12ca:	d010      	beq.n	12ee <gpio_dir+0x2e>
    12cc:	b145      	cbz	r5, 12e0 <gpio_dir+0x20>
    12ce:	2d01      	cmp	r5, #1
    12d0:	d105      	bne.n	12de <gpio_dir+0x1e>
    12d2:	68a3      	ldr	r3, [r4, #8]
    12d4:	6862      	ldr	r2, [r4, #4]
    12d6:	6819      	ldr	r1, [r3, #0]
    12d8:	430a      	orrs	r2, r1
    12da:	601a      	str	r2, [r3, #0]
    12dc:	bd38      	pop	{r3, r4, r5, pc}
    12de:	bd38      	pop	{r3, r4, r5, pc}
    12e0:	68a3      	ldr	r3, [r4, #8]
    12e2:	6861      	ldr	r1, [r4, #4]
    12e4:	681a      	ldr	r2, [r3, #0]
    12e6:	ea22 0201 	bic.w	r2, r2, r1
    12ea:	601a      	str	r2, [r3, #0]
    12ec:	bd38      	pop	{r3, r4, r5, pc}
    12ee:	4803      	ldr	r0, [pc, #12]	; (12fc <gpio_dir+0x3c>)
    12f0:	4903      	ldr	r1, [pc, #12]	; (1300 <gpio_dir+0x40>)
    12f2:	222c      	movs	r2, #44	; 0x2c
    12f4:	f7ff fe9c 	bl	1030 <mbed_assert_internal>
    12f8:	e7e8      	b.n	12cc <gpio_dir+0xc>
    12fa:	bf00      	nop
    12fc:	000090b8 	strheq	r9, [r0], -r8
    1300:	000094f8 	strdeq	r9, [r0], -r8

00001304 <pin_function>:
    1304:	b538      	push	{r3, r4, r5, lr}
    1306:	1c43      	adds	r3, r0, #1
    1308:	4604      	mov	r4, r0
    130a:	460d      	mov	r5, r1
    130c:	d017      	beq.n	133e <pin_function+0x3a>
    130e:	f104 4060 	add.w	r0, r4, #3758096384	; 0xe0000000
    1312:	f5a0 201c 	sub.w	r0, r0, #638976	; 0x9c000
    1316:	f000 030f 	and.w	r3, r0, #15
    131a:	005b      	lsls	r3, r3, #1
    131c:	2203      	movs	r2, #3
    131e:	409a      	lsls	r2, r3
    1320:	409d      	lsls	r5, r3
    1322:	0903      	lsrs	r3, r0, #4
    1324:	009b      	lsls	r3, r3, #2
    1326:	f103 4380 	add.w	r3, r3, #1073741824	; 0x40000000
    132a:	f503 3330 	add.w	r3, r3, #180224	; 0x2c000
    132e:	6819      	ldr	r1, [r3, #0]
    1330:	ea21 0202 	bic.w	r2, r1, r2
    1334:	601a      	str	r2, [r3, #0]
    1336:	681a      	ldr	r2, [r3, #0]
    1338:	4315      	orrs	r5, r2
    133a:	601d      	str	r5, [r3, #0]
    133c:	bd38      	pop	{r3, r4, r5, pc}
    133e:	4803      	ldr	r0, [pc, #12]	; (134c <pin_function+0x48>)
    1340:	4903      	ldr	r1, [pc, #12]	; (1350 <pin_function+0x4c>)
    1342:	2215      	movs	r2, #21
    1344:	f7ff fe74 	bl	1030 <mbed_assert_internal>
    1348:	e7e1      	b.n	130e <pin_function+0xa>
    134a:	bf00      	nop
    134c:	000094e4 	andeq	r9, r0, r4, ror #9
    1350:	00009560 	andeq	r9, r0, r0, ror #10

00001354 <pin_mode>:
    1354:	b538      	push	{r3, r4, r5, lr}
    1356:	1c43      	adds	r3, r0, #1
    1358:	4604      	mov	r4, r0
    135a:	460d      	mov	r5, r1
    135c:	d02c      	beq.n	13b8 <pin_mode+0x64>
    135e:	f104 4060 	add.w	r0, r4, #3758096384	; 0xe0000000
    1362:	f5a0 201c 	sub.w	r0, r0, #638976	; 0x9c000
    1366:	f000 041f 	and.w	r4, r0, #31
    136a:	f3c5 0280 	ubfx	r2, r5, #2, #1
    136e:	fa02 f404 	lsl.w	r4, r2, r4
    1372:	0943      	lsrs	r3, r0, #5
    1374:	009b      	lsls	r3, r3, #2
    1376:	f103 4380 	add.w	r3, r3, #1073741824	; 0x40000000
    137a:	f503 3330 	add.w	r3, r3, #180224	; 0x2c000
    137e:	6e99      	ldr	r1, [r3, #104]	; 0x68
    1380:	ea21 0104 	bic.w	r1, r1, r4
    1384:	6699      	str	r1, [r3, #104]	; 0x68
    1386:	6e99      	ldr	r1, [r3, #104]	; 0x68
    1388:	430c      	orrs	r4, r1
    138a:	669c      	str	r4, [r3, #104]	; 0x68
    138c:	b99a      	cbnz	r2, 13b6 <pin_mode+0x62>
    138e:	f000 030f 	and.w	r3, r0, #15
    1392:	005b      	lsls	r3, r3, #1
    1394:	2203      	movs	r2, #3
    1396:	409a      	lsls	r2, r3
    1398:	fa05 f303 	lsl.w	r3, r5, r3
    139c:	0900      	lsrs	r0, r0, #4
    139e:	0080      	lsls	r0, r0, #2
    13a0:	f100 4080 	add.w	r0, r0, #1073741824	; 0x40000000
    13a4:	f500 3030 	add.w	r0, r0, #180224	; 0x2c000
    13a8:	6c01      	ldr	r1, [r0, #64]	; 0x40
    13aa:	ea21 0202 	bic.w	r2, r1, r2
    13ae:	6402      	str	r2, [r0, #64]	; 0x40
    13b0:	6c02      	ldr	r2, [r0, #64]	; 0x40
    13b2:	4313      	orrs	r3, r2
    13b4:	6403      	str	r3, [r0, #64]	; 0x40
    13b6:	bd38      	pop	{r3, r4, r5, pc}
    13b8:	4802      	ldr	r0, [pc, #8]	; (13c4 <pin_mode+0x70>)
    13ba:	4903      	ldr	r1, [pc, #12]	; (13c8 <pin_mode+0x74>)
    13bc:	2220      	movs	r2, #32
    13be:	f7ff fe37 	bl	1030 <mbed_assert_internal>
    13c2:	e7cc      	b.n	135e <pin_mode+0xa>
    13c4:	000094e4 	andeq	r9, r0, r4, ror #9
    13c8:	00009560 	andeq	r9, r0, r0, ror #10

000013cc <us_ticker_init>:
    13cc:	4a13      	ldr	r2, [pc, #76]	; (141c <us_ticker_init+0x50>)
    13ce:	b538      	push	{r3, r4, r5, lr}
    13d0:	6813      	ldr	r3, [r2, #0]
    13d2:	bb0b      	cbnz	r3, 1418 <us_ticker_init+0x4c>
    13d4:	4912      	ldr	r1, [pc, #72]	; (1420 <us_ticker_init+0x54>)
    13d6:	2401      	movs	r4, #1
    13d8:	f8d1 50c4 	ldr.w	r5, [r1, #196]	; 0xc4
    13dc:	6014      	str	r4, [r2, #0]
    13de:	4a11      	ldr	r2, [pc, #68]	; (1424 <us_ticker_init+0x58>)
    13e0:	4811      	ldr	r0, [pc, #68]	; (1428 <us_ticker_init+0x5c>)
    13e2:	f445 0500 	orr.w	r5, r5, #8388608	; 0x800000
    13e6:	f8c1 50c4 	str.w	r5, [r1, #196]	; 0xc4
    13ea:	6713      	str	r3, [r2, #112]	; 0x70
    13ec:	6803      	ldr	r3, [r0, #0]
    13ee:	f101 7143 	add.w	r1, r1, #51118080	; 0x30c0000
    13f2:	f501 51f4 	add.w	r1, r1, #7808	; 0x1e80
    13f6:	3103      	adds	r1, #3
    13f8:	089b      	lsrs	r3, r3, #2
    13fa:	fba1 0303 	umull	r0, r3, r1, r3
    13fe:	0c9b      	lsrs	r3, r3, #18
    1400:	3b01      	subs	r3, #1
    1402:	2102      	movs	r1, #2
    1404:	6051      	str	r1, [r2, #4]
    1406:	2004      	movs	r0, #4
    1408:	60d3      	str	r3, [r2, #12]
    140a:	4908      	ldr	r1, [pc, #32]	; (142c <us_ticker_init+0x60>)
    140c:	6054      	str	r4, [r2, #4]
    140e:	f7ff f817 	bl	440 <NVIC_SetVector>
    1412:	4b07      	ldr	r3, [pc, #28]	; (1430 <us_ticker_init+0x64>)
    1414:	2210      	movs	r2, #16
    1416:	601a      	str	r2, [r3, #0]
    1418:	bd38      	pop	{r3, r4, r5, pc}
    141a:	bf00      	nop
    141c:	10000bbc 			; <UNDEFINED> instruction: 0x10000bbc
    1420:	400fc000 	andmi	ip, pc, r0
    1424:	40094000 	andmi	r4, r9, r0
    1428:	100000d0 	ldrdne	r0, [r0], -r0	; <UNPREDICTABLE>
    142c:	00001481 	andeq	r1, r0, r1, lsl #9
    1430:	e000e100 	and	lr, r0, r0, lsl #2

00001434 <us_ticker_read>:
    1434:	b508      	push	{r3, lr}
    1436:	4b04      	ldr	r3, [pc, #16]	; (1448 <us_ticker_read+0x14>)
    1438:	681b      	ldr	r3, [r3, #0]
    143a:	b90b      	cbnz	r3, 1440 <us_ticker_read+0xc>
    143c:	f7ff ffc6 	bl	13cc <us_ticker_init>
    1440:	4b02      	ldr	r3, [pc, #8]	; (144c <us_ticker_read+0x18>)
    1442:	6898      	ldr	r0, [r3, #8]
    1444:	bd08      	pop	{r3, pc}
    1446:	bf00      	nop
    1448:	10000bbc 			; <UNDEFINED> instruction: 0x10000bbc
    144c:	40094000 	andmi	r4, r9, r0

00001450 <us_ticker_set_interrupt>:
    1450:	4b03      	ldr	r3, [pc, #12]	; (1460 <us_ticker_set_interrupt+0x10>)
    1452:	6198      	str	r0, [r3, #24]
    1454:	695a      	ldr	r2, [r3, #20]
    1456:	f042 0201 	orr.w	r2, r2, #1
    145a:	615a      	str	r2, [r3, #20]
    145c:	4770      	bx	lr
    145e:	bf00      	nop
    1460:	40094000 	andmi	r4, r9, r0

00001464 <us_ticker_disable_interrupt>:
    1464:	4b02      	ldr	r3, [pc, #8]	; (1470 <us_ticker_disable_interrupt+0xc>)
    1466:	695a      	ldr	r2, [r3, #20]
    1468:	f022 0201 	bic.w	r2, r2, #1
    146c:	615a      	str	r2, [r3, #20]
    146e:	4770      	bx	lr
    1470:	40094000 	andmi	r4, r9, r0

00001474 <us_ticker_clear_interrupt>:
    1474:	4b01      	ldr	r3, [pc, #4]	; (147c <us_ticker_clear_interrupt+0x8>)
    1476:	2201      	movs	r2, #1
    1478:	601a      	str	r2, [r3, #0]
    147a:	4770      	bx	lr
    147c:	40094000 	andmi	r4, r9, r0

00001480 <us_ticker_irq_handler>:
    1480:	4801      	ldr	r0, [pc, #4]	; (1488 <us_ticker_irq_handler+0x8>)
    1482:	f000 b803 	b.w	148c <ticker_irq_handler>
    1486:	bf00      	nop
    1488:	000095d8 	ldrdeq	r9, [r0], -r8

0000148c <ticker_irq_handler>:
    148c:	b538      	push	{r3, r4, r5, lr}
    148e:	6803      	ldr	r3, [r0, #0]
    1490:	4604      	mov	r4, r0
    1492:	68db      	ldr	r3, [r3, #12]
    1494:	4798      	blx	r3
    1496:	6863      	ldr	r3, [r4, #4]
    1498:	685b      	ldr	r3, [r3, #4]
    149a:	b183      	cbz	r3, 14be <ticker_irq_handler+0x32>
    149c:	6822      	ldr	r2, [r4, #0]
    149e:	681d      	ldr	r5, [r3, #0]
    14a0:	6853      	ldr	r3, [r2, #4]
    14a2:	4798      	blx	r3
    14a4:	1a28      	subs	r0, r5, r0
    14a6:	2800      	cmp	r0, #0
    14a8:	6862      	ldr	r2, [r4, #4]
    14aa:	dc0c      	bgt.n	14c6 <ticker_irq_handler+0x3a>
    14ac:	6850      	ldr	r0, [r2, #4]
    14ae:	6811      	ldr	r1, [r2, #0]
    14b0:	6883      	ldr	r3, [r0, #8]
    14b2:	6053      	str	r3, [r2, #4]
    14b4:	2900      	cmp	r1, #0
    14b6:	d0f0      	beq.n	149a <ticker_irq_handler+0xe>
    14b8:	6840      	ldr	r0, [r0, #4]
    14ba:	4788      	blx	r1
    14bc:	e7eb      	b.n	1496 <ticker_irq_handler+0xa>
    14be:	6823      	ldr	r3, [r4, #0]
    14c0:	689b      	ldr	r3, [r3, #8]
    14c2:	4798      	blx	r3
    14c4:	bd38      	pop	{r3, r4, r5, pc}
    14c6:	6823      	ldr	r3, [r4, #0]
    14c8:	6852      	ldr	r2, [r2, #4]
    14ca:	691b      	ldr	r3, [r3, #16]
    14cc:	6810      	ldr	r0, [r2, #0]
    14ce:	4798      	blx	r3
    14d0:	bd38      	pop	{r3, r4, r5, pc}
    14d2:	bf00      	nop

000014d4 <_ZdlPv>:
    14d4:	f001 ba3a 	b.w	294c <free>

000014d8 <_ZNSt13bad_exceptionD1Ev>:
    14d8:	4770      	bx	lr
    14da:	bf00      	nop

000014dc <_ZNKSt13bad_exception4whatEv>:
    14dc:	4800      	ldr	r0, [pc, #0]	; (14e0 <_ZNKSt13bad_exception4whatEv+0x4>)
    14de:	4770      	bx	lr
    14e0:	00009644 	andeq	r9, r0, r4, asr #12

000014e4 <_ZNSt13bad_exceptionD0Ev>:
    14e4:	b510      	push	{r4, lr}
    14e6:	4604      	mov	r4, r0
    14e8:	f7ff fff4 	bl	14d4 <_ZdlPv>
    14ec:	4620      	mov	r0, r4
    14ee:	bd10      	pop	{r4, pc}

000014f0 <__cxa_allocate_exception>:
    14f0:	b538      	push	{r3, r4, r5, lr}
    14f2:	f100 0580 	add.w	r5, r0, #128	; 0x80
    14f6:	4628      	mov	r0, r5
    14f8:	f001 fa20 	bl	293c <malloc>
    14fc:	4604      	mov	r4, r0
    14fe:	b138      	cbz	r0, 1510 <__cxa_allocate_exception+0x20>
    1500:	4620      	mov	r0, r4
    1502:	2100      	movs	r1, #0
    1504:	2280      	movs	r2, #128	; 0x80
    1506:	f001 fd6f 	bl	2fe8 <memset>
    150a:	f104 0080 	add.w	r0, r4, #128	; 0x80
    150e:	bd38      	pop	{r3, r4, r5, pc}
    1510:	4a0b      	ldr	r2, [pc, #44]	; (1540 <__cxa_allocate_exception+0x50>)
    1512:	f5b5 7f00 	cmp.w	r5, #512	; 0x200
    1516:	6811      	ldr	r1, [r2, #0]
    1518:	d807      	bhi.n	152a <__cxa_allocate_exception+0x3a>
    151a:	460b      	mov	r3, r1
    151c:	07d8      	lsls	r0, r3, #31
    151e:	d506      	bpl.n	152e <__cxa_allocate_exception+0x3e>
    1520:	3401      	adds	r4, #1
    1522:	2c04      	cmp	r4, #4
    1524:	ea4f 0353 	mov.w	r3, r3, lsr #1
    1528:	d1f8      	bne.n	151c <__cxa_allocate_exception+0x2c>
    152a:	f000 f9e5 	bl	18f8 <_ZSt9terminatev>
    152e:	2301      	movs	r3, #1
    1530:	40a3      	lsls	r3, r4
    1532:	4804      	ldr	r0, [pc, #16]	; (1544 <__cxa_allocate_exception+0x54>)
    1534:	4319      	orrs	r1, r3
    1536:	6011      	str	r1, [r2, #0]
    1538:	eb00 2444 	add.w	r4, r0, r4, lsl #9
    153c:	e7e0      	b.n	1500 <__cxa_allocate_exception+0x10>
    153e:	bf00      	nop
    1540:	10000bc8 	andne	r0, r0, r8, asr #23
    1544:	10000bd0 	ldrdne	r0, [r0], -r0	; <UNPREDICTABLE>

00001548 <__cxa_free_exception>:
    1548:	4b09      	ldr	r3, [pc, #36]	; (1570 <__cxa_free_exception+0x28>)
    154a:	4298      	cmp	r0, r3
    154c:	d303      	bcc.n	1556 <__cxa_free_exception+0xe>
    154e:	f503 6200 	add.w	r2, r3, #2048	; 0x800
    1552:	4290      	cmp	r0, r2
    1554:	d302      	bcc.n	155c <__cxa_free_exception+0x14>
    1556:	3880      	subs	r0, #128	; 0x80
    1558:	f001 b9f8 	b.w	294c <free>
    155c:	4905      	ldr	r1, [pc, #20]	; (1574 <__cxa_free_exception+0x2c>)
    155e:	1ac0      	subs	r0, r0, r3
    1560:	0a40      	lsrs	r0, r0, #9
    1562:	680b      	ldr	r3, [r1, #0]
    1564:	2201      	movs	r2, #1
    1566:	4082      	lsls	r2, r0
    1568:	ea23 0302 	bic.w	r3, r3, r2
    156c:	600b      	str	r3, [r1, #0]
    156e:	4770      	bx	lr
    1570:	10000bd0 	ldrdne	r0, [r0], -r0	; <UNPREDICTABLE>
    1574:	10000bc8 	andne	r0, r0, r8, asr #23

00001578 <_ZNK10__cxxabiv117__class_type_info11__do_upcastEPKS0_PPv>:
    1578:	b570      	push	{r4, r5, r6, lr}
    157a:	6806      	ldr	r6, [r0, #0]
    157c:	b084      	sub	sp, #16
    157e:	2400      	movs	r4, #0
    1580:	2310      	movs	r3, #16
    1582:	4615      	mov	r5, r2
    1584:	9302      	str	r3, [sp, #8]
    1586:	6812      	ldr	r2, [r2, #0]
    1588:	466b      	mov	r3, sp
    158a:	69b6      	ldr	r6, [r6, #24]
    158c:	9400      	str	r4, [sp, #0]
    158e:	f88d 4004 	strb.w	r4, [sp, #4]
    1592:	9403      	str	r4, [sp, #12]
    1594:	47b0      	blx	r6
    1596:	f89d 3004 	ldrb.w	r3, [sp, #4]
    159a:	f003 0306 	and.w	r3, r3, #6
    159e:	2b06      	cmp	r3, #6
    15a0:	bf11      	iteee	ne
    15a2:	4620      	movne	r0, r4
    15a4:	9b00      	ldreq	r3, [sp, #0]
    15a6:	2001      	moveq	r0, #1
    15a8:	602b      	streq	r3, [r5, #0]
    15aa:	b004      	add	sp, #16
    15ac:	bd70      	pop	{r4, r5, r6, pc}
    15ae:	bf00      	nop

000015b0 <_ZNK10__cxxabiv117__class_type_info20__do_find_public_srcEiPKvPKS0_S2_>:
    15b0:	9800      	ldr	r0, [sp, #0]
    15b2:	4290      	cmp	r0, r2
    15b4:	bf0c      	ite	eq
    15b6:	2006      	moveq	r0, #6
    15b8:	2001      	movne	r0, #1
    15ba:	4770      	bx	lr

000015bc <_ZN10__cxxabiv117__class_type_infoD1Ev>:
    15bc:	b510      	push	{r4, lr}
    15be:	4604      	mov	r4, r0
    15c0:	4b02      	ldr	r3, [pc, #8]	; (15cc <_ZN10__cxxabiv117__class_type_infoD1Ev+0x10>)
    15c2:	6003      	str	r3, [r0, #0]
    15c4:	f000 f9c0 	bl	1948 <_ZNSt9type_infoD1Ev>
    15c8:	4620      	mov	r0, r4
    15ca:	bd10      	pop	{r4, pc}
    15cc:	000096b0 			; <UNDEFINED> instruction: 0x000096b0

000015d0 <_ZN10__cxxabiv117__class_type_infoD0Ev>:
    15d0:	b510      	push	{r4, lr}
    15d2:	4604      	mov	r4, r0
    15d4:	4b04      	ldr	r3, [pc, #16]	; (15e8 <_ZN10__cxxabiv117__class_type_infoD0Ev+0x18>)
    15d6:	6003      	str	r3, [r0, #0]
    15d8:	f000 f9b6 	bl	1948 <_ZNSt9type_infoD1Ev>
    15dc:	4620      	mov	r0, r4
    15de:	f7ff ff79 	bl	14d4 <_ZdlPv>
    15e2:	4620      	mov	r0, r4
    15e4:	bd10      	pop	{r4, pc}
    15e6:	bf00      	nop
    15e8:	000096b0 			; <UNDEFINED> instruction: 0x000096b0

000015ec <_ZNK10__cxxabiv117__class_type_info11__do_upcastEPKS0_PKvRNS0_15__upcast_resultE>:
    15ec:	b538      	push	{r3, r4, r5, lr}
    15ee:	4615      	mov	r5, r2
    15f0:	461c      	mov	r4, r3
    15f2:	f000 f9af 	bl	1954 <_ZNKSt9type_infoeqERKS_>
    15f6:	b120      	cbz	r0, 1602 <_ZNK10__cxxabiv117__class_type_info11__do_upcastEPKS0_PKvRNS0_15__upcast_resultE+0x16>
    15f8:	2208      	movs	r2, #8
    15fa:	2306      	movs	r3, #6
    15fc:	6025      	str	r5, [r4, #0]
    15fe:	60e2      	str	r2, [r4, #12]
    1600:	7123      	strb	r3, [r4, #4]
    1602:	bd38      	pop	{r3, r4, r5, pc}

00001604 <_ZNK10__cxxabiv117__class_type_info10__do_catchEPKSt9type_infoPPvj>:
    1604:	e92d 41f0 	stmdb	sp!, {r4, r5, r6, r7, r8, lr}
    1608:	4616      	mov	r6, r2
    160a:	461c      	mov	r4, r3
    160c:	4607      	mov	r7, r0
    160e:	460d      	mov	r5, r1
    1610:	f000 f9a0 	bl	1954 <_ZNKSt9type_infoeqERKS_>
    1614:	b908      	cbnz	r0, 161a <_ZNK10__cxxabiv117__class_type_info10__do_catchEPKSt9type_infoPPvj+0x16>
    1616:	2c03      	cmp	r4, #3
    1618:	d901      	bls.n	161e <_ZNK10__cxxabiv117__class_type_info10__do_catchEPKSt9type_infoPPvj+0x1a>
    161a:	e8bd 81f0 	ldmia.w	sp!, {r4, r5, r6, r7, r8, pc}
    161e:	682b      	ldr	r3, [r5, #0]
    1620:	4639      	mov	r1, r7
    1622:	4632      	mov	r2, r6
    1624:	4628      	mov	r0, r5
    1626:	e8bd 41f0 	ldmia.w	sp!, {r4, r5, r6, r7, r8, lr}
    162a:	695b      	ldr	r3, [r3, #20]
    162c:	4718      	bx	r3
    162e:	bf00      	nop

00001630 <_ZNK10__cxxabiv117__class_type_info12__do_dyncastEiNS0_10__sub_kindEPKS0_PKvS3_S5_RNS0_16__dyncast_resultE>:
    1630:	b570      	push	{r4, r5, r6, lr}
    1632:	b082      	sub	sp, #8
    1634:	9c06      	ldr	r4, [sp, #24]
    1636:	9908      	ldr	r1, [sp, #32]
    1638:	4616      	mov	r6, r2
    163a:	428c      	cmp	r4, r1
    163c:	4605      	mov	r5, r0
    163e:	d00c      	beq.n	165a <_ZNK10__cxxabiv117__class_type_info12__do_dyncastEiNS0_10__sub_kindEPKS0_PKvS3_S5_RNS0_16__dyncast_resultE+0x2a>
    1640:	4628      	mov	r0, r5
    1642:	4619      	mov	r1, r3
    1644:	f000 f986 	bl	1954 <_ZNKSt9type_infoeqERKS_>
    1648:	b120      	cbz	r0, 1654 <_ZNK10__cxxabiv117__class_type_info12__do_dyncastEiNS0_10__sub_kindEPKS0_PKvS3_S5_RNS0_16__dyncast_resultE+0x24>
    164a:	9a09      	ldr	r2, [sp, #36]	; 0x24
    164c:	2301      	movs	r3, #1
    164e:	6014      	str	r4, [r2, #0]
    1650:	7116      	strb	r6, [r2, #4]
    1652:	7193      	strb	r3, [r2, #6]
    1654:	2000      	movs	r0, #0
    1656:	b002      	add	sp, #8
    1658:	bd70      	pop	{r4, r5, r6, pc}
    165a:	9907      	ldr	r1, [sp, #28]
    165c:	9301      	str	r3, [sp, #4]
    165e:	f000 f979 	bl	1954 <_ZNKSt9type_infoeqERKS_>
    1662:	9b01      	ldr	r3, [sp, #4]
    1664:	2800      	cmp	r0, #0
    1666:	d0eb      	beq.n	1640 <_ZNK10__cxxabiv117__class_type_info12__do_dyncastEiNS0_10__sub_kindEPKS0_PKvS3_S5_RNS0_16__dyncast_resultE+0x10>
    1668:	9b09      	ldr	r3, [sp, #36]	; 0x24
    166a:	715e      	strb	r6, [r3, #5]
    166c:	e7f2      	b.n	1654 <_ZNK10__cxxabiv117__class_type_info12__do_dyncastEiNS0_10__sub_kindEPKS0_PKvS3_S5_RNS0_16__dyncast_resultE+0x24>
    166e:	bf00      	nop

00001670 <_ZN10__cxxabiv120__si_class_type_infoD1Ev>:
    1670:	b510      	push	{r4, lr}
    1672:	4604      	mov	r4, r0
    1674:	4b02      	ldr	r3, [pc, #8]	; (1680 <_ZN10__cxxabiv120__si_class_type_infoD1Ev+0x10>)
    1676:	6003      	str	r3, [r0, #0]
    1678:	f7ff ffa0 	bl	15bc <_ZN10__cxxabiv117__class_type_infoD1Ev>
    167c:	4620      	mov	r0, r4
    167e:	bd10      	pop	{r4, pc}
    1680:	00009710 	andeq	r9, r0, r0, lsl r7

00001684 <_ZN10__cxxabiv120__si_class_type_infoD0Ev>:
    1684:	b510      	push	{r4, lr}
    1686:	4604      	mov	r4, r0
    1688:	4b04      	ldr	r3, [pc, #16]	; (169c <_ZN10__cxxabiv120__si_class_type_infoD0Ev+0x18>)
    168a:	6003      	str	r3, [r0, #0]
    168c:	f7ff ff96 	bl	15bc <_ZN10__cxxabiv117__class_type_infoD1Ev>
    1690:	4620      	mov	r0, r4
    1692:	f7ff ff1f 	bl	14d4 <_ZdlPv>
    1696:	4620      	mov	r0, r4
    1698:	bd10      	pop	{r4, pc}
    169a:	bf00      	nop
    169c:	00009710 	andeq	r9, r0, r0, lsl r7

000016a0 <_ZNK10__cxxabiv120__si_class_type_info20__do_find_public_srcEiPKvPKNS_17__class_type_infoES2_>:
    16a0:	b570      	push	{r4, r5, r6, lr}
    16a2:	b082      	sub	sp, #8
    16a4:	9c06      	ldr	r4, [sp, #24]
    16a6:	460d      	mov	r5, r1
    16a8:	4294      	cmp	r4, r2
    16aa:	4606      	mov	r6, r0
    16ac:	d009      	beq.n	16c2 <_ZNK10__cxxabiv120__si_class_type_info20__do_find_public_srcEiPKvPKNS_17__class_type_infoES2_+0x22>
    16ae:	68b0      	ldr	r0, [r6, #8]
    16b0:	4629      	mov	r1, r5
    16b2:	6805      	ldr	r5, [r0, #0]
    16b4:	9406      	str	r4, [sp, #24]
    16b6:	6a2c      	ldr	r4, [r5, #32]
    16b8:	46a4      	mov	ip, r4
    16ba:	b002      	add	sp, #8
    16bc:	e8bd 4070 	ldmia.w	sp!, {r4, r5, r6, lr}
    16c0:	4760      	bx	ip
    16c2:	4619      	mov	r1, r3
    16c4:	9201      	str	r2, [sp, #4]
    16c6:	9300      	str	r3, [sp, #0]
    16c8:	f000 f944 	bl	1954 <_ZNKSt9type_infoeqERKS_>
    16cc:	9b00      	ldr	r3, [sp, #0]
    16ce:	9a01      	ldr	r2, [sp, #4]
    16d0:	2800      	cmp	r0, #0
    16d2:	d0ec      	beq.n	16ae <_ZNK10__cxxabiv120__si_class_type_info20__do_find_public_srcEiPKvPKNS_17__class_type_infoES2_+0xe>
    16d4:	2006      	movs	r0, #6
    16d6:	b002      	add	sp, #8
    16d8:	bd70      	pop	{r4, r5, r6, pc}
    16da:	bf00      	nop

000016dc <_ZNK10__cxxabiv120__si_class_type_info12__do_dyncastEiNS_17__class_type_info10__sub_kindEPKS1_PKvS4_S6_RNS1_16__dyncast_resultE>:
    16dc:	e92d 4ff0 	stmdb	sp!, {r4, r5, r6, r7, r8, r9, sl, fp, lr}
    16e0:	460c      	mov	r4, r1
    16e2:	b081      	sub	sp, #4
    16e4:	4619      	mov	r1, r3
    16e6:	461f      	mov	r7, r3
    16e8:	4691      	mov	r9, r2
    16ea:	4683      	mov	fp, r0
    16ec:	9e0a      	ldr	r6, [sp, #40]	; 0x28
    16ee:	f8dd a02c 	ldr.w	sl, [sp, #44]	; 0x2c
    16f2:	f8dd 8030 	ldr.w	r8, [sp, #48]	; 0x30
    16f6:	9d0d      	ldr	r5, [sp, #52]	; 0x34
    16f8:	f000 f92c 	bl	1954 <_ZNKSt9type_infoeqERKS_>
    16fc:	b170      	cbz	r0, 171c <_ZNK10__cxxabiv120__si_class_type_info12__do_dyncastEiNS_17__class_type_info10__sub_kindEPKS1_PKvS4_S6_RNS1_16__dyncast_resultE+0x40>
    16fe:	2c00      	cmp	r4, #0
    1700:	602e      	str	r6, [r5, #0]
    1702:	f885 9004 	strb.w	r9, [r5, #4]
    1706:	db1d      	blt.n	1744 <_ZNK10__cxxabiv120__si_class_type_info12__do_dyncastEiNS_17__class_type_info10__sub_kindEPKS1_PKvS4_S6_RNS1_16__dyncast_resultE+0x68>
    1708:	4434      	add	r4, r6
    170a:	45a0      	cmp	r8, r4
    170c:	bf0c      	ite	eq
    170e:	2406      	moveq	r4, #6
    1710:	2401      	movne	r4, #1
    1712:	71ac      	strb	r4, [r5, #6]
    1714:	2000      	movs	r0, #0
    1716:	b001      	add	sp, #4
    1718:	e8bd 8ff0 	ldmia.w	sp!, {r4, r5, r6, r7, r8, r9, sl, fp, pc}
    171c:	4546      	cmp	r6, r8
    171e:	d016      	beq.n	174e <_ZNK10__cxxabiv120__si_class_type_info12__do_dyncastEiNS_17__class_type_info10__sub_kindEPKS1_PKvS4_S6_RNS1_16__dyncast_resultE+0x72>
    1720:	f8db 0008 	ldr.w	r0, [fp, #8]
    1724:	4621      	mov	r1, r4
    1726:	6804      	ldr	r4, [r0, #0]
    1728:	960a      	str	r6, [sp, #40]	; 0x28
    172a:	f8cd a02c 	str.w	sl, [sp, #44]	; 0x2c
    172e:	f8cd 8030 	str.w	r8, [sp, #48]	; 0x30
    1732:	950d      	str	r5, [sp, #52]	; 0x34
    1734:	69e4      	ldr	r4, [r4, #28]
    1736:	464a      	mov	r2, r9
    1738:	463b      	mov	r3, r7
    173a:	46a4      	mov	ip, r4
    173c:	b001      	add	sp, #4
    173e:	e8bd 4ff0 	ldmia.w	sp!, {r4, r5, r6, r7, r8, r9, sl, fp, lr}
    1742:	4760      	bx	ip
    1744:	3402      	adds	r4, #2
    1746:	d1e5      	bne.n	1714 <_ZNK10__cxxabiv120__si_class_type_info12__do_dyncastEiNS_17__class_type_info10__sub_kindEPKS1_PKvS4_S6_RNS1_16__dyncast_resultE+0x38>
    1748:	2301      	movs	r3, #1
    174a:	71ab      	strb	r3, [r5, #6]
    174c:	e7e2      	b.n	1714 <_ZNK10__cxxabiv120__si_class_type_info12__do_dyncastEiNS_17__class_type_info10__sub_kindEPKS1_PKvS4_S6_RNS1_16__dyncast_resultE+0x38>
    174e:	4658      	mov	r0, fp
    1750:	4651      	mov	r1, sl
    1752:	f000 f8ff 	bl	1954 <_ZNKSt9type_infoeqERKS_>
    1756:	2800      	cmp	r0, #0
    1758:	d0e2      	beq.n	1720 <_ZNK10__cxxabiv120__si_class_type_info12__do_dyncastEiNS_17__class_type_info10__sub_kindEPKS1_PKvS4_S6_RNS1_16__dyncast_resultE+0x44>
    175a:	f885 9005 	strb.w	r9, [r5, #5]
    175e:	e7d9      	b.n	1714 <_ZNK10__cxxabiv120__si_class_type_info12__do_dyncastEiNS_17__class_type_info10__sub_kindEPKS1_PKvS4_S6_RNS1_16__dyncast_resultE+0x38>

00001760 <_ZNK10__cxxabiv120__si_class_type_info11__do_upcastEPKNS_17__class_type_infoEPKvRNS1_15__upcast_resultE>:
    1760:	e92d 41f0 	stmdb	sp!, {r4, r5, r6, r7, r8, lr}
    1764:	4607      	mov	r7, r0
    1766:	460e      	mov	r6, r1
    1768:	4615      	mov	r5, r2
    176a:	461c      	mov	r4, r3
    176c:	f7ff ff3e 	bl	15ec <_ZNK10__cxxabiv117__class_type_info11__do_upcastEPKS0_PKvRNS0_15__upcast_resultE>
    1770:	b108      	cbz	r0, 1776 <_ZNK10__cxxabiv120__si_class_type_info11__do_upcastEPKNS_17__class_type_infoEPKvRNS1_15__upcast_resultE+0x16>
    1772:	e8bd 81f0 	ldmia.w	sp!, {r4, r5, r6, r7, r8, pc}
    1776:	68b8      	ldr	r0, [r7, #8]
    1778:	4631      	mov	r1, r6
    177a:	6806      	ldr	r6, [r0, #0]
    177c:	4623      	mov	r3, r4
    177e:	69b4      	ldr	r4, [r6, #24]
    1780:	462a      	mov	r2, r5
    1782:	46a4      	mov	ip, r4
    1784:	e8bd 41f0 	ldmia.w	sp!, {r4, r5, r6, r7, r8, lr}
    1788:	4760      	bx	ip
    178a:	bf00      	nop

0000178c <_ZL23__gxx_exception_cleanup19_Unwind_Reason_CodeP21_Unwind_Control_Block>:
    178c:	2801      	cmp	r0, #1
    178e:	b510      	push	{r4, lr}
    1790:	d81a      	bhi.n	17c8 <_ZL23__gxx_exception_cleanup19_Unwind_Reason_CodeP21_Unwind_Control_Block+0x3c>
    1792:	f3bf 8f5f 	dmb	sy
    1796:	f1a1 0328 	sub.w	r3, r1, #40	; 0x28
    179a:	e853 2f00 	ldrex	r2, [r3]
    179e:	3a01      	subs	r2, #1
    17a0:	e843 2000 	strex	r0, r2, [r3]
    17a4:	2800      	cmp	r0, #0
    17a6:	d1f8      	bne.n	179a <_ZL23__gxx_exception_cleanup19_Unwind_Reason_CodeP21_Unwind_Control_Block+0xe>
    17a8:	f3bf 8f5f 	dmb	sy
    17ac:	b95a      	cbnz	r2, 17c6 <_ZL23__gxx_exception_cleanup19_Unwind_Reason_CodeP21_Unwind_Control_Block+0x3a>
    17ae:	f851 3c1c 	ldr.w	r3, [r1, #-28]
    17b2:	f101 0458 	add.w	r4, r1, #88	; 0x58
    17b6:	b10b      	cbz	r3, 17bc <_ZL23__gxx_exception_cleanup19_Unwind_Reason_CodeP21_Unwind_Control_Block+0x30>
    17b8:	4620      	mov	r0, r4
    17ba:	4798      	blx	r3
    17bc:	4620      	mov	r0, r4
    17be:	e8bd 4010 	ldmia.w	sp!, {r4, lr}
    17c2:	f7ff bec1 	b.w	1548 <__cxa_free_exception>
    17c6:	bd10      	pop	{r4, pc}
    17c8:	f851 0c14 	ldr.w	r0, [r1, #-20]
    17cc:	f000 f880 	bl	18d0 <_ZN10__cxxabiv111__terminateEPFvvE>

000017d0 <__cxa_throw>:
    17d0:	b5f8      	push	{r3, r4, r5, r6, r7, lr}
    17d2:	4604      	mov	r4, r0
    17d4:	460f      	mov	r7, r1
    17d6:	4616      	mov	r6, r2
    17d8:	f000 f876 	bl	18c8 <__cxa_get_globals>
    17dc:	6843      	ldr	r3, [r0, #4]
    17de:	2501      	movs	r5, #1
    17e0:	442b      	add	r3, r5
    17e2:	6043      	str	r3, [r0, #4]
    17e4:	f844 7c78 	str.w	r7, [r4, #-120]
    17e8:	f844 6c74 	str.w	r6, [r4, #-116]
    17ec:	f844 5c80 	str.w	r5, [r4, #-128]
    17f0:	f000 f8a2 	bl	1938 <_ZSt14get_unexpectedv>
    17f4:	f844 0c70 	str.w	r0, [r4, #-112]
    17f8:	f000 f896 	bl	1928 <_ZSt13get_terminatev>
    17fc:	4913      	ldr	r1, [pc, #76]	; (184c <__cxa_throw+0x7c>)
    17fe:	2243      	movs	r2, #67	; 0x43
    1800:	232b      	movs	r3, #43	; 0x2b
    1802:	f04f 0c47 	mov.w	ip, #71	; 0x47
    1806:	f04f 0e4e 	mov.w	lr, #78	; 0x4e
    180a:	f1a4 0558 	sub.w	r5, r4, #88	; 0x58
    180e:	2755      	movs	r7, #85	; 0x55
    1810:	2600      	movs	r6, #0
    1812:	f844 0c6c 	str.w	r0, [r4, #-108]
    1816:	f804 cc58 	strb.w	ip, [r4, #-88]
    181a:	f804 ec57 	strb.w	lr, [r4, #-87]
    181e:	f844 1c50 	str.w	r1, [r4, #-80]
    1822:	f804 2c55 	strb.w	r2, [r4, #-85]
    1826:	f804 2c54 	strb.w	r2, [r4, #-84]
    182a:	f804 3c53 	strb.w	r3, [r4, #-83]
    182e:	f804 3c52 	strb.w	r3, [r4, #-82]
    1832:	f804 7c56 	strb.w	r7, [r4, #-86]
    1836:	f804 6c51 	strb.w	r6, [r4, #-81]
    183a:	4628      	mov	r0, r5
    183c:	f006 ff0e 	bl	865c <_Unwind_RaiseException>
    1840:	4628      	mov	r0, r5
    1842:	f000 fa01 	bl	1c48 <__cxa_begin_catch>
    1846:	f000 f857 	bl	18f8 <_ZSt9terminatev>
    184a:	bf00      	nop
    184c:	0000178d 	andeq	r1, r0, sp, lsl #15

00001850 <__cxa_rethrow>:
    1850:	b510      	push	{r4, lr}
    1852:	f000 f839 	bl	18c8 <__cxa_get_globals>
    1856:	6842      	ldr	r2, [r0, #4]
    1858:	6803      	ldr	r3, [r0, #0]
    185a:	3201      	adds	r2, #1
    185c:	6042      	str	r2, [r0, #4]
    185e:	b16b      	cbz	r3, 187c <__cxa_rethrow+0x2c>
    1860:	f893 2020 	ldrb.w	r2, [r3, #32]
    1864:	2a47      	cmp	r2, #71	; 0x47
    1866:	d00b      	beq.n	1880 <__cxa_rethrow+0x30>
    1868:	2200      	movs	r2, #0
    186a:	6002      	str	r2, [r0, #0]
    186c:	f103 0420 	add.w	r4, r3, #32
    1870:	4620      	mov	r0, r4
    1872:	f006 ff17 	bl	86a4 <_Unwind_Resume_or_Rethrow>
    1876:	4620      	mov	r0, r4
    1878:	f000 f9e6 	bl	1c48 <__cxa_begin_catch>
    187c:	f000 f83c 	bl	18f8 <_ZSt9terminatev>
    1880:	f893 2021 	ldrb.w	r2, [r3, #33]	; 0x21
    1884:	2a4e      	cmp	r2, #78	; 0x4e
    1886:	d1ef      	bne.n	1868 <__cxa_rethrow+0x18>
    1888:	f893 2022 	ldrb.w	r2, [r3, #34]	; 0x22
    188c:	2a55      	cmp	r2, #85	; 0x55
    188e:	d1eb      	bne.n	1868 <__cxa_rethrow+0x18>
    1890:	f893 2023 	ldrb.w	r2, [r3, #35]	; 0x23
    1894:	2a43      	cmp	r2, #67	; 0x43
    1896:	d1e7      	bne.n	1868 <__cxa_rethrow+0x18>
    1898:	f893 2024 	ldrb.w	r2, [r3, #36]	; 0x24
    189c:	2a43      	cmp	r2, #67	; 0x43
    189e:	d1e3      	bne.n	1868 <__cxa_rethrow+0x18>
    18a0:	f893 2025 	ldrb.w	r2, [r3, #37]	; 0x25
    18a4:	2a2b      	cmp	r2, #43	; 0x2b
    18a6:	d1df      	bne.n	1868 <__cxa_rethrow+0x18>
    18a8:	f893 2026 	ldrb.w	r2, [r3, #38]	; 0x26
    18ac:	2a2b      	cmp	r2, #43	; 0x2b
    18ae:	d1db      	bne.n	1868 <__cxa_rethrow+0x18>
    18b0:	f893 2027 	ldrb.w	r2, [r3, #39]	; 0x27
    18b4:	2a01      	cmp	r2, #1
    18b6:	d8d7      	bhi.n	1868 <__cxa_rethrow+0x18>
    18b8:	695a      	ldr	r2, [r3, #20]
    18ba:	4252      	negs	r2, r2
    18bc:	615a      	str	r2, [r3, #20]
    18be:	e7d5      	b.n	186c <__cxa_rethrow+0x1c>

000018c0 <__cxa_get_globals_fast>:
    18c0:	4800      	ldr	r0, [pc, #0]	; (18c4 <__cxa_get_globals_fast+0x4>)
    18c2:	4770      	bx	lr
    18c4:	100013d0 	ldrdne	r1, [r0], -r0

000018c8 <__cxa_get_globals>:
    18c8:	4800      	ldr	r0, [pc, #0]	; (18cc <__cxa_get_globals+0x4>)
    18ca:	4770      	bx	lr
    18cc:	100013d0 	ldrdne	r1, [r0], -r0

000018d0 <_ZN10__cxxabiv111__terminateEPFvvE>:
    18d0:	b508      	push	{r3, lr}
    18d2:	4780      	blx	r0
    18d4:	f000 fd32 	bl	233c <abort>
    18d8:	f000 f9b6 	bl	1c48 <__cxa_begin_catch>
    18dc:	f000 fd2e 	bl	233c <abort>
    18e0:	460d      	mov	r5, r1
    18e2:	4604      	mov	r4, r0
    18e4:	f000 f9f6 	bl	1cd4 <__cxa_end_catch>
    18e8:	3501      	adds	r5, #1
    18ea:	d001      	beq.n	18f0 <_ZN10__cxxabiv111__terminateEPFvvE+0x20>
    18ec:	f000 f848 	bl	1980 <__cxa_end_cleanup>
    18f0:	4620      	mov	r0, r4
    18f2:	f000 f93b 	bl	1b6c <__cxa_call_unexpected>
    18f6:	bf00      	nop

000018f8 <_ZSt9terminatev>:
    18f8:	b508      	push	{r3, lr}
    18fa:	4b03      	ldr	r3, [pc, #12]	; (1908 <_ZSt9terminatev+0x10>)
    18fc:	6818      	ldr	r0, [r3, #0]
    18fe:	f3bf 8f5f 	dmb	sy
    1902:	f7ff ffe5 	bl	18d0 <_ZN10__cxxabiv111__terminateEPFvvE>
    1906:	bf00      	nop
    1908:	100000d4 	ldrdne	r0, [r0], -r4

0000190c <_ZN10__cxxabiv112__unexpectedEPFvvE>:
    190c:	b508      	push	{r3, lr}
    190e:	4780      	blx	r0
    1910:	f7ff fff2 	bl	18f8 <_ZSt9terminatev>

00001914 <_ZSt10unexpectedv>:
    1914:	b508      	push	{r3, lr}
    1916:	4b03      	ldr	r3, [pc, #12]	; (1924 <_ZSt10unexpectedv+0x10>)
    1918:	6818      	ldr	r0, [r3, #0]
    191a:	f3bf 8f5f 	dmb	sy
    191e:	f7ff fff5 	bl	190c <_ZN10__cxxabiv112__unexpectedEPFvvE>
    1922:	bf00      	nop
    1924:	100000d8 	ldrdne	r0, [r0], -r8

00001928 <_ZSt13get_terminatev>:
    1928:	4b02      	ldr	r3, [pc, #8]	; (1934 <_ZSt13get_terminatev+0xc>)
    192a:	6818      	ldr	r0, [r3, #0]
    192c:	f3bf 8f5f 	dmb	sy
    1930:	4770      	bx	lr
    1932:	bf00      	nop
    1934:	100000d4 	ldrdne	r0, [r0], -r4

00001938 <_ZSt14get_unexpectedv>:
    1938:	4b02      	ldr	r3, [pc, #8]	; (1944 <_ZSt14get_unexpectedv+0xc>)
    193a:	6818      	ldr	r0, [r3, #0]
    193c:	f3bf 8f5f 	dmb	sy
    1940:	4770      	bx	lr
    1942:	bf00      	nop
    1944:	100000d8 	ldrdne	r0, [r0], -r8

00001948 <_ZNSt9type_infoD1Ev>:
    1948:	4770      	bx	lr
    194a:	bf00      	nop

0000194c <_ZNKSt9type_info14__is_pointer_pEv>:
    194c:	2000      	movs	r0, #0
    194e:	4770      	bx	lr

00001950 <_ZNKSt9type_info15__is_function_pEv>:
    1950:	2000      	movs	r0, #0
    1952:	4770      	bx	lr

00001954 <_ZNKSt9type_infoeqERKS_>:
    1954:	4281      	cmp	r1, r0
    1956:	d011      	beq.n	197c <_ZNKSt9type_infoeqERKS_+0x28>
    1958:	b508      	push	{r3, lr}
    195a:	6840      	ldr	r0, [r0, #4]
    195c:	7803      	ldrb	r3, [r0, #0]
    195e:	2b2a      	cmp	r3, #42	; 0x2a
    1960:	d00a      	beq.n	1978 <_ZNKSt9type_infoeqERKS_+0x24>
    1962:	6849      	ldr	r1, [r1, #4]
    1964:	780b      	ldrb	r3, [r1, #0]
    1966:	2b2a      	cmp	r3, #42	; 0x2a
    1968:	bf08      	it	eq
    196a:	3101      	addeq	r1, #1
    196c:	f001 fc40 	bl	31f0 <strcmp>
    1970:	fab0 f080 	clz	r0, r0
    1974:	0940      	lsrs	r0, r0, #5
    1976:	bd08      	pop	{r3, pc}
    1978:	2000      	movs	r0, #0
    197a:	bd08      	pop	{r3, pc}
    197c:	2001      	movs	r0, #1
    197e:	4770      	bx	lr

00001980 <__cxa_end_cleanup>:
    1980:	b41e      	push	{r1, r2, r3, r4}
    1982:	f000 f88d 	bl	1aa0 <__gnu_end_cleanup>
    1986:	bc1e      	pop	{r1, r2, r3, r4}
    1988:	f006 fe7a 	bl	8680 <_Unwind_Resume>

0000198c <__cxa_type_match>:
    198c:	b5f0      	push	{r4, r5, r6, r7, lr}
    198e:	7802      	ldrb	r2, [r0, #0]
    1990:	b083      	sub	sp, #12
    1992:	2a47      	cmp	r2, #71	; 0x47
    1994:	460e      	mov	r6, r1
    1996:	461f      	mov	r7, r3
    1998:	d01a      	beq.n	19d0 <__cxa_type_match+0x44>
    199a:	2300      	movs	r3, #0
    199c:	4c25      	ldr	r4, [pc, #148]	; (1a34 <__cxa_type_match+0xa8>)
    199e:	9301      	str	r3, [sp, #4]
    19a0:	6823      	ldr	r3, [r4, #0]
    19a2:	4620      	mov	r0, r4
    19a4:	689b      	ldr	r3, [r3, #8]
    19a6:	4798      	blx	r3
    19a8:	b180      	cbz	r0, 19cc <__cxa_type_match+0x40>
    19aa:	9b01      	ldr	r3, [sp, #4]
    19ac:	2502      	movs	r5, #2
    19ae:	681b      	ldr	r3, [r3, #0]
    19b0:	9301      	str	r3, [sp, #4]
    19b2:	6833      	ldr	r3, [r6, #0]
    19b4:	4621      	mov	r1, r4
    19b6:	4630      	mov	r0, r6
    19b8:	691c      	ldr	r4, [r3, #16]
    19ba:	aa01      	add	r2, sp, #4
    19bc:	2301      	movs	r3, #1
    19be:	47a0      	blx	r4
    19c0:	b110      	cbz	r0, 19c8 <__cxa_type_match+0x3c>
    19c2:	4628      	mov	r0, r5
    19c4:	9b01      	ldr	r3, [sp, #4]
    19c6:	603b      	str	r3, [r7, #0]
    19c8:	b003      	add	sp, #12
    19ca:	bdf0      	pop	{r4, r5, r6, r7, pc}
    19cc:	2501      	movs	r5, #1
    19ce:	e7f0      	b.n	19b2 <__cxa_type_match+0x26>
    19d0:	7843      	ldrb	r3, [r0, #1]
    19d2:	2b4e      	cmp	r3, #78	; 0x4e
    19d4:	d1e1      	bne.n	199a <__cxa_type_match+0xe>
    19d6:	7883      	ldrb	r3, [r0, #2]
    19d8:	2b55      	cmp	r3, #85	; 0x55
    19da:	d1de      	bne.n	199a <__cxa_type_match+0xe>
    19dc:	78c3      	ldrb	r3, [r0, #3]
    19de:	2b43      	cmp	r3, #67	; 0x43
    19e0:	d019      	beq.n	1a16 <__cxa_type_match+0x8a>
    19e2:	78c3      	ldrb	r3, [r0, #3]
    19e4:	2b43      	cmp	r3, #67	; 0x43
    19e6:	d1d8      	bne.n	199a <__cxa_type_match+0xe>
    19e8:	7903      	ldrb	r3, [r0, #4]
    19ea:	2b43      	cmp	r3, #67	; 0x43
    19ec:	d1d5      	bne.n	199a <__cxa_type_match+0xe>
    19ee:	7943      	ldrb	r3, [r0, #5]
    19f0:	2b2b      	cmp	r3, #43	; 0x2b
    19f2:	d1d2      	bne.n	199a <__cxa_type_match+0xe>
    19f4:	7983      	ldrb	r3, [r0, #6]
    19f6:	2b2b      	cmp	r3, #43	; 0x2b
    19f8:	d1cf      	bne.n	199a <__cxa_type_match+0xe>
    19fa:	79c3      	ldrb	r3, [r0, #7]
    19fc:	2b01      	cmp	r3, #1
    19fe:	d8cc      	bhi.n	199a <__cxa_type_match+0xe>
    1a00:	d004      	beq.n	1a0c <__cxa_type_match+0x80>
    1a02:	f850 4c20 	ldr.w	r4, [r0, #-32]
    1a06:	3058      	adds	r0, #88	; 0x58
    1a08:	9001      	str	r0, [sp, #4]
    1a0a:	e7c9      	b.n	19a0 <__cxa_type_match+0x14>
    1a0c:	f850 0c20 	ldr.w	r0, [r0, #-32]
    1a10:	f850 4c78 	ldr.w	r4, [r0, #-120]
    1a14:	e7f8      	b.n	1a08 <__cxa_type_match+0x7c>
    1a16:	7903      	ldrb	r3, [r0, #4]
    1a18:	2b46      	cmp	r3, #70	; 0x46
    1a1a:	d1e2      	bne.n	19e2 <__cxa_type_match+0x56>
    1a1c:	7943      	ldrb	r3, [r0, #5]
    1a1e:	2b4f      	cmp	r3, #79	; 0x4f
    1a20:	d1df      	bne.n	19e2 <__cxa_type_match+0x56>
    1a22:	7983      	ldrb	r3, [r0, #6]
    1a24:	2b52      	cmp	r3, #82	; 0x52
    1a26:	d1dc      	bne.n	19e2 <__cxa_type_match+0x56>
    1a28:	79c3      	ldrb	r3, [r0, #7]
    1a2a:	2b00      	cmp	r3, #0
    1a2c:	d1d9      	bne.n	19e2 <__cxa_type_match+0x56>
    1a2e:	9301      	str	r3, [sp, #4]
    1a30:	4c01      	ldr	r4, [pc, #4]	; (1a38 <__cxa_type_match+0xac>)
    1a32:	e7b5      	b.n	19a0 <__cxa_type_match+0x14>
    1a34:	00009658 	andeq	r9, r0, r8, asr r6
    1a38:	00009600 	andeq	r9, r0, r0, lsl #12

00001a3c <__cxa_begin_cleanup>:
    1a3c:	b510      	push	{r4, lr}
    1a3e:	4604      	mov	r4, r0
    1a40:	f7ff ff42 	bl	18c8 <__cxa_get_globals>
    1a44:	7823      	ldrb	r3, [r4, #0]
    1a46:	f1a4 0220 	sub.w	r2, r4, #32
    1a4a:	2b47      	cmp	r3, #71	; 0x47
    1a4c:	d004      	beq.n	1a58 <__cxa_begin_cleanup+0x1c>
    1a4e:	6883      	ldr	r3, [r0, #8]
    1a50:	bb23      	cbnz	r3, 1a9c <__cxa_begin_cleanup+0x60>
    1a52:	6082      	str	r2, [r0, #8]
    1a54:	2001      	movs	r0, #1
    1a56:	bd10      	pop	{r4, pc}
    1a58:	7863      	ldrb	r3, [r4, #1]
    1a5a:	2b4e      	cmp	r3, #78	; 0x4e
    1a5c:	d1f7      	bne.n	1a4e <__cxa_begin_cleanup+0x12>
    1a5e:	78a3      	ldrb	r3, [r4, #2]
    1a60:	2b55      	cmp	r3, #85	; 0x55
    1a62:	d1f4      	bne.n	1a4e <__cxa_begin_cleanup+0x12>
    1a64:	78e3      	ldrb	r3, [r4, #3]
    1a66:	2b43      	cmp	r3, #67	; 0x43
    1a68:	d1f1      	bne.n	1a4e <__cxa_begin_cleanup+0x12>
    1a6a:	7923      	ldrb	r3, [r4, #4]
    1a6c:	2b43      	cmp	r3, #67	; 0x43
    1a6e:	d1ee      	bne.n	1a4e <__cxa_begin_cleanup+0x12>
    1a70:	7963      	ldrb	r3, [r4, #5]
    1a72:	2b2b      	cmp	r3, #43	; 0x2b
    1a74:	d1eb      	bne.n	1a4e <__cxa_begin_cleanup+0x12>
    1a76:	79a3      	ldrb	r3, [r4, #6]
    1a78:	2b2b      	cmp	r3, #43	; 0x2b
    1a7a:	d1e8      	bne.n	1a4e <__cxa_begin_cleanup+0x12>
    1a7c:	79e3      	ldrb	r3, [r4, #7]
    1a7e:	2b01      	cmp	r3, #1
    1a80:	d8e5      	bhi.n	1a4e <__cxa_begin_cleanup+0x12>
    1a82:	f854 3c04 	ldr.w	r3, [r4, #-4]
    1a86:	3301      	adds	r3, #1
    1a88:	2b01      	cmp	r3, #1
    1a8a:	f844 3c04 	str.w	r3, [r4, #-4]
    1a8e:	d1e1      	bne.n	1a54 <__cxa_begin_cleanup+0x18>
    1a90:	6883      	ldr	r3, [r0, #8]
    1a92:	f844 3c08 	str.w	r3, [r4, #-8]
    1a96:	6082      	str	r2, [r0, #8]
    1a98:	2001      	movs	r0, #1
    1a9a:	bd10      	pop	{r4, pc}
    1a9c:	f7ff ff2c 	bl	18f8 <_ZSt9terminatev>

00001aa0 <__gnu_end_cleanup>:
    1aa0:	b508      	push	{r3, lr}
    1aa2:	f7ff ff11 	bl	18c8 <__cxa_get_globals>
    1aa6:	6883      	ldr	r3, [r0, #8]
    1aa8:	b383      	cbz	r3, 1b0c <__gnu_end_cleanup+0x6c>
    1aaa:	f893 2020 	ldrb.w	r2, [r3, #32]
    1aae:	2a47      	cmp	r2, #71	; 0x47
    1ab0:	d004      	beq.n	1abc <__gnu_end_cleanup+0x1c>
    1ab2:	2200      	movs	r2, #0
    1ab4:	6082      	str	r2, [r0, #8]
    1ab6:	f103 0020 	add.w	r0, r3, #32
    1aba:	bd08      	pop	{r3, pc}
    1abc:	f893 2021 	ldrb.w	r2, [r3, #33]	; 0x21
    1ac0:	2a4e      	cmp	r2, #78	; 0x4e
    1ac2:	d1f6      	bne.n	1ab2 <__gnu_end_cleanup+0x12>
    1ac4:	f893 2022 	ldrb.w	r2, [r3, #34]	; 0x22
    1ac8:	2a55      	cmp	r2, #85	; 0x55
    1aca:	d1f2      	bne.n	1ab2 <__gnu_end_cleanup+0x12>
    1acc:	f893 2023 	ldrb.w	r2, [r3, #35]	; 0x23
    1ad0:	2a43      	cmp	r2, #67	; 0x43
    1ad2:	d1ee      	bne.n	1ab2 <__gnu_end_cleanup+0x12>
    1ad4:	f893 2024 	ldrb.w	r2, [r3, #36]	; 0x24
    1ad8:	2a43      	cmp	r2, #67	; 0x43
    1ada:	d1ea      	bne.n	1ab2 <__gnu_end_cleanup+0x12>
    1adc:	f893 2025 	ldrb.w	r2, [r3, #37]	; 0x25
    1ae0:	2a2b      	cmp	r2, #43	; 0x2b
    1ae2:	d1e6      	bne.n	1ab2 <__gnu_end_cleanup+0x12>
    1ae4:	f893 2026 	ldrb.w	r2, [r3, #38]	; 0x26
    1ae8:	2a2b      	cmp	r2, #43	; 0x2b
    1aea:	d1e2      	bne.n	1ab2 <__gnu_end_cleanup+0x12>
    1aec:	f893 2027 	ldrb.w	r2, [r3, #39]	; 0x27
    1af0:	2a01      	cmp	r2, #1
    1af2:	d8de      	bhi.n	1ab2 <__gnu_end_cleanup+0x12>
    1af4:	69da      	ldr	r2, [r3, #28]
    1af6:	3a01      	subs	r2, #1
    1af8:	61da      	str	r2, [r3, #28]
    1afa:	2a00      	cmp	r2, #0
    1afc:	d1db      	bne.n	1ab6 <__gnu_end_cleanup+0x16>
    1afe:	6999      	ldr	r1, [r3, #24]
    1b00:	2200      	movs	r2, #0
    1b02:	6081      	str	r1, [r0, #8]
    1b04:	619a      	str	r2, [r3, #24]
    1b06:	f103 0020 	add.w	r0, r3, #32
    1b0a:	bd08      	pop	{r3, pc}
    1b0c:	f7ff fef4 	bl	18f8 <_ZSt9terminatev>

00001b10 <_ZN10__cxxabiv1L24__is_gxx_exception_classEPc>:
    1b10:	7803      	ldrb	r3, [r0, #0]
    1b12:	2b47      	cmp	r3, #71	; 0x47
    1b14:	d001      	beq.n	1b1a <_ZN10__cxxabiv1L24__is_gxx_exception_classEPc+0xa>
    1b16:	2000      	movs	r0, #0
    1b18:	4770      	bx	lr
    1b1a:	7843      	ldrb	r3, [r0, #1]
    1b1c:	2b4e      	cmp	r3, #78	; 0x4e
    1b1e:	d1fa      	bne.n	1b16 <_ZN10__cxxabiv1L24__is_gxx_exception_classEPc+0x6>
    1b20:	7883      	ldrb	r3, [r0, #2]
    1b22:	2b55      	cmp	r3, #85	; 0x55
    1b24:	d1f7      	bne.n	1b16 <_ZN10__cxxabiv1L24__is_gxx_exception_classEPc+0x6>
    1b26:	78c3      	ldrb	r3, [r0, #3]
    1b28:	2b43      	cmp	r3, #67	; 0x43
    1b2a:	d1f4      	bne.n	1b16 <_ZN10__cxxabiv1L24__is_gxx_exception_classEPc+0x6>
    1b2c:	7903      	ldrb	r3, [r0, #4]
    1b2e:	2b43      	cmp	r3, #67	; 0x43
    1b30:	d1f1      	bne.n	1b16 <_ZN10__cxxabiv1L24__is_gxx_exception_classEPc+0x6>
    1b32:	7943      	ldrb	r3, [r0, #5]
    1b34:	2b2b      	cmp	r3, #43	; 0x2b
    1b36:	d1ee      	bne.n	1b16 <_ZN10__cxxabiv1L24__is_gxx_exception_classEPc+0x6>
    1b38:	7983      	ldrb	r3, [r0, #6]
    1b3a:	2b2b      	cmp	r3, #43	; 0x2b
    1b3c:	d1eb      	bne.n	1b16 <_ZN10__cxxabiv1L24__is_gxx_exception_classEPc+0x6>
    1b3e:	79c0      	ldrb	r0, [r0, #7]
    1b40:	2801      	cmp	r0, #1
    1b42:	bf8c      	ite	hi
    1b44:	2000      	movhi	r0, #0
    1b46:	2001      	movls	r0, #1
    1b48:	4770      	bx	lr
    1b4a:	bf00      	nop

00001b4c <__cxa_call_terminate>:
    1b4c:	b510      	push	{r4, lr}
    1b4e:	b130      	cbz	r0, 1b5e <__cxa_call_terminate+0x12>
    1b50:	4604      	mov	r4, r0
    1b52:	f000 f879 	bl	1c48 <__cxa_begin_catch>
    1b56:	4620      	mov	r0, r4
    1b58:	f7ff ffda 	bl	1b10 <_ZN10__cxxabiv1L24__is_gxx_exception_classEPc>
    1b5c:	b908      	cbnz	r0, 1b62 <__cxa_call_terminate+0x16>
    1b5e:	f7ff fecb 	bl	18f8 <_ZSt9terminatev>
    1b62:	f854 0c14 	ldr.w	r0, [r4, #-20]
    1b66:	f7ff feb3 	bl	18d0 <_ZN10__cxxabiv111__terminateEPFvvE>
    1b6a:	bf00      	nop

00001b6c <__cxa_call_unexpected>:
    1b6c:	e92d 4ff0 	stmdb	sp!, {r4, r5, r6, r7, r8, r9, sl, fp, lr}
    1b70:	b083      	sub	sp, #12
    1b72:	4604      	mov	r4, r0
    1b74:	f7ff ffcc 	bl	1b10 <_ZN10__cxxabiv1L24__is_gxx_exception_classEPc>
    1b78:	b168      	cbz	r0, 1b96 <__cxa_call_unexpected+0x2a>
    1b7a:	f854 5c18 	ldr.w	r5, [r4, #-24]
    1b7e:	4620      	mov	r0, r4
    1b80:	f854 7c14 	ldr.w	r7, [r4, #-20]
    1b84:	f8d4 8028 	ldr.w	r8, [r4, #40]	; 0x28
    1b88:	6b26      	ldr	r6, [r4, #48]	; 0x30
    1b8a:	6b64      	ldr	r4, [r4, #52]	; 0x34
    1b8c:	f000 f85c 	bl	1c48 <__cxa_begin_catch>
    1b90:	4628      	mov	r0, r5
    1b92:	f7ff febb 	bl	190c <_ZN10__cxxabiv112__unexpectedEPFvvE>
    1b96:	4620      	mov	r0, r4
    1b98:	f000 f856 	bl	1c48 <__cxa_begin_catch>
    1b9c:	f7ff feba 	bl	1914 <_ZSt10unexpectedv>
    1ba0:	f000 f852 	bl	1c48 <__cxa_begin_catch>
    1ba4:	f7ff fea8 	bl	18f8 <_ZSt9terminatev>
    1ba8:	f000 f84e 	bl	1c48 <__cxa_begin_catch>
    1bac:	f7ff fe88 	bl	18c0 <__cxa_get_globals_fast>
    1bb0:	6803      	ldr	r3, [r0, #0]
    1bb2:	f893 2027 	ldrb.w	r2, [r3, #39]	; 0x27
    1bb6:	2a01      	cmp	r2, #1
    1bb8:	d033      	beq.n	1c22 <__cxa_call_unexpected+0xb6>
    1bba:	f103 0278 	add.w	r2, r3, #120	; 0x78
    1bbe:	f04f 0900 	mov.w	r9, #0
    1bc2:	46cb      	mov	fp, r9
    1bc4:	9200      	str	r2, [sp, #0]
    1bc6:	f026 0603 	bic.w	r6, r6, #3
    1bca:	f103 0a20 	add.w	sl, r3, #32
    1bce:	45c3      	cmp	fp, r8
    1bd0:	da1b      	bge.n	1c0a <__cxa_call_unexpected+0x9e>
    1bd2:	6825      	ldr	r5, [r4, #0]
    1bd4:	b105      	cbz	r5, 1bd8 <__cxa_call_unexpected+0x6c>
    1bd6:	4425      	add	r5, r4
    1bd8:	4650      	mov	r0, sl
    1bda:	4629      	mov	r1, r5
    1bdc:	2200      	movs	r2, #0
    1bde:	466b      	mov	r3, sp
    1be0:	f7ff fed4 	bl	198c <__cxa_type_match>
    1be4:	bb10      	cbnz	r0, 1c2c <__cxa_call_unexpected+0xc0>
    1be6:	682b      	ldr	r3, [r5, #0]
    1be8:	aa02      	add	r2, sp, #8
    1bea:	f842 0d04 	str.w	r0, [r2, #-4]!
    1bee:	f8d3 c010 	ldr.w	ip, [r3, #16]
    1bf2:	4628      	mov	r0, r5
    1bf4:	4911      	ldr	r1, [pc, #68]	; (1c3c <__cxa_call_unexpected+0xd0>)
    1bf6:	2301      	movs	r3, #1
    1bf8:	47e0      	blx	ip
    1bfa:	2800      	cmp	r0, #0
    1bfc:	bf18      	it	ne
    1bfe:	f04f 0901 	movne.w	r9, #1
    1c02:	f10b 0b01 	add.w	fp, fp, #1
    1c06:	4434      	add	r4, r6
    1c08:	e7e1      	b.n	1bce <__cxa_call_unexpected+0x62>
    1c0a:	f1b9 0f00 	cmp.w	r9, #0
    1c0e:	d00a      	beq.n	1c26 <__cxa_call_unexpected+0xba>
    1c10:	2004      	movs	r0, #4
    1c12:	f7ff fc6d 	bl	14f0 <__cxa_allocate_exception>
    1c16:	4b0a      	ldr	r3, [pc, #40]	; (1c40 <__cxa_call_unexpected+0xd4>)
    1c18:	4908      	ldr	r1, [pc, #32]	; (1c3c <__cxa_call_unexpected+0xd0>)
    1c1a:	6003      	str	r3, [r0, #0]
    1c1c:	4a09      	ldr	r2, [pc, #36]	; (1c44 <__cxa_call_unexpected+0xd8>)
    1c1e:	f7ff fdd7 	bl	17d0 <__cxa_throw>
    1c22:	681a      	ldr	r2, [r3, #0]
    1c24:	e7cb      	b.n	1bbe <__cxa_call_unexpected+0x52>
    1c26:	4638      	mov	r0, r7
    1c28:	f7ff fe52 	bl	18d0 <_ZN10__cxxabiv111__terminateEPFvvE>
    1c2c:	f7ff fe10 	bl	1850 <__cxa_rethrow>
    1c30:	f000 f850 	bl	1cd4 <__cxa_end_catch>
    1c34:	f000 f84e 	bl	1cd4 <__cxa_end_catch>
    1c38:	f7ff fea2 	bl	1980 <__cxa_end_cleanup>
    1c3c:	00009698 	muleq	r0, r8, r6
    1c40:	00009668 	andeq	r9, r0, r8, ror #12
    1c44:	000014d9 	ldrdeq	r1, [r0], -r9

00001c48 <__cxa_begin_catch>:
    1c48:	b538      	push	{r3, r4, r5, lr}
    1c4a:	4604      	mov	r4, r0
    1c4c:	f7ff fe3c 	bl	18c8 <__cxa_get_globals>
    1c50:	7821      	ldrb	r1, [r4, #0]
    1c52:	6803      	ldr	r3, [r0, #0]
    1c54:	2947      	cmp	r1, #71	; 0x47
    1c56:	f1a4 0220 	sub.w	r2, r4, #32
    1c5a:	d005      	beq.n	1c68 <__cxa_begin_catch+0x20>
    1c5c:	2b00      	cmp	r3, #0
    1c5e:	d131      	bne.n	1cc4 <__cxa_begin_catch+0x7c>
    1c60:	461c      	mov	r4, r3
    1c62:	6002      	str	r2, [r0, #0]
    1c64:	4620      	mov	r0, r4
    1c66:	bd38      	pop	{r3, r4, r5, pc}
    1c68:	7861      	ldrb	r1, [r4, #1]
    1c6a:	294e      	cmp	r1, #78	; 0x4e
    1c6c:	d1f6      	bne.n	1c5c <__cxa_begin_catch+0x14>
    1c6e:	78a1      	ldrb	r1, [r4, #2]
    1c70:	2955      	cmp	r1, #85	; 0x55
    1c72:	d1f3      	bne.n	1c5c <__cxa_begin_catch+0x14>
    1c74:	78e1      	ldrb	r1, [r4, #3]
    1c76:	2943      	cmp	r1, #67	; 0x43
    1c78:	d1f0      	bne.n	1c5c <__cxa_begin_catch+0x14>
    1c7a:	7921      	ldrb	r1, [r4, #4]
    1c7c:	2943      	cmp	r1, #67	; 0x43
    1c7e:	d1ed      	bne.n	1c5c <__cxa_begin_catch+0x14>
    1c80:	7961      	ldrb	r1, [r4, #5]
    1c82:	292b      	cmp	r1, #43	; 0x2b
    1c84:	d1ea      	bne.n	1c5c <__cxa_begin_catch+0x14>
    1c86:	79a1      	ldrb	r1, [r4, #6]
    1c88:	292b      	cmp	r1, #43	; 0x2b
    1c8a:	d1e7      	bne.n	1c5c <__cxa_begin_catch+0x14>
    1c8c:	79e1      	ldrb	r1, [r4, #7]
    1c8e:	2901      	cmp	r1, #1
    1c90:	d8e4      	bhi.n	1c5c <__cxa_begin_catch+0x14>
    1c92:	f854 5c0c 	ldr.w	r5, [r4, #-12]
    1c96:	2d00      	cmp	r5, #0
    1c98:	db11      	blt.n	1cbe <__cxa_begin_catch+0x76>
    1c9a:	3501      	adds	r5, #1
    1c9c:	6841      	ldr	r1, [r0, #4]
    1c9e:	4293      	cmp	r3, r2
    1ca0:	f101 31ff 	add.w	r1, r1, #4294967295
    1ca4:	f844 5c0c 	str.w	r5, [r4, #-12]
    1ca8:	6041      	str	r1, [r0, #4]
    1caa:	bf1c      	itt	ne
    1cac:	f844 3c10 	strne.w	r3, [r4, #-16]
    1cb0:	6002      	strne	r2, [r0, #0]
    1cb2:	4620      	mov	r0, r4
    1cb4:	6a64      	ldr	r4, [r4, #36]	; 0x24
    1cb6:	f006 f903 	bl	7ec0 <_Unwind_Complete>
    1cba:	4620      	mov	r0, r4
    1cbc:	bd38      	pop	{r3, r4, r5, pc}
    1cbe:	f1c5 0501 	rsb	r5, r5, #1
    1cc2:	e7eb      	b.n	1c9c <__cxa_begin_catch+0x54>
    1cc4:	f7ff fe18 	bl	18f8 <_ZSt9terminatev>
    1cc8:	3101      	adds	r1, #1
    1cca:	d001      	beq.n	1cd0 <__cxa_begin_catch+0x88>
    1ccc:	f7ff fe58 	bl	1980 <__cxa_end_cleanup>
    1cd0:	f7ff ff4c 	bl	1b6c <__cxa_call_unexpected>

00001cd4 <__cxa_end_catch>:
    1cd4:	b508      	push	{r3, lr}
    1cd6:	f7ff fdf3 	bl	18c0 <__cxa_get_globals_fast>
    1cda:	4602      	mov	r2, r0
    1cdc:	6800      	ldr	r0, [r0, #0]
    1cde:	2800      	cmp	r0, #0
    1ce0:	d03d      	beq.n	1d5e <__cxa_end_catch+0x8a>
    1ce2:	f890 3020 	ldrb.w	r3, [r0, #32]
    1ce6:	2b47      	cmp	r3, #71	; 0x47
    1ce8:	d006      	beq.n	1cf8 <__cxa_end_catch+0x24>
    1cea:	2300      	movs	r3, #0
    1cec:	6013      	str	r3, [r2, #0]
    1cee:	3020      	adds	r0, #32
    1cf0:	e8bd 4008 	ldmia.w	sp!, {r3, lr}
    1cf4:	f006 b8e6 	b.w	7ec4 <_Unwind_DeleteException>
    1cf8:	f890 3021 	ldrb.w	r3, [r0, #33]	; 0x21
    1cfc:	2b4e      	cmp	r3, #78	; 0x4e
    1cfe:	d1f4      	bne.n	1cea <__cxa_end_catch+0x16>
    1d00:	f890 3022 	ldrb.w	r3, [r0, #34]	; 0x22
    1d04:	2b55      	cmp	r3, #85	; 0x55
    1d06:	d1f0      	bne.n	1cea <__cxa_end_catch+0x16>
    1d08:	f890 3023 	ldrb.w	r3, [r0, #35]	; 0x23
    1d0c:	2b43      	cmp	r3, #67	; 0x43
    1d0e:	d1ec      	bne.n	1cea <__cxa_end_catch+0x16>
    1d10:	f890 3024 	ldrb.w	r3, [r0, #36]	; 0x24
    1d14:	2b43      	cmp	r3, #67	; 0x43
    1d16:	d1e8      	bne.n	1cea <__cxa_end_catch+0x16>
    1d18:	f890 3025 	ldrb.w	r3, [r0, #37]	; 0x25
    1d1c:	2b2b      	cmp	r3, #43	; 0x2b
    1d1e:	d1e4      	bne.n	1cea <__cxa_end_catch+0x16>
    1d20:	f890 3026 	ldrb.w	r3, [r0, #38]	; 0x26
    1d24:	2b2b      	cmp	r3, #43	; 0x2b
    1d26:	d1e0      	bne.n	1cea <__cxa_end_catch+0x16>
    1d28:	f890 3027 	ldrb.w	r3, [r0, #39]	; 0x27
    1d2c:	2b01      	cmp	r3, #1
    1d2e:	d8dc      	bhi.n	1cea <__cxa_end_catch+0x16>
    1d30:	6943      	ldr	r3, [r0, #20]
    1d32:	2b00      	cmp	r3, #0
    1d34:	db05      	blt.n	1d42 <__cxa_end_catch+0x6e>
    1d36:	3b01      	subs	r3, #1
    1d38:	d008      	beq.n	1d4c <__cxa_end_catch+0x78>
    1d3a:	1c5a      	adds	r2, r3, #1
    1d3c:	d00d      	beq.n	1d5a <__cxa_end_catch+0x86>
    1d3e:	6143      	str	r3, [r0, #20]
    1d40:	bd08      	pop	{r3, pc}
    1d42:	3301      	adds	r3, #1
    1d44:	d1fb      	bne.n	1d3e <__cxa_end_catch+0x6a>
    1d46:	6901      	ldr	r1, [r0, #16]
    1d48:	6011      	str	r1, [r2, #0]
    1d4a:	e7f8      	b.n	1d3e <__cxa_end_catch+0x6a>
    1d4c:	6903      	ldr	r3, [r0, #16]
    1d4e:	3020      	adds	r0, #32
    1d50:	6013      	str	r3, [r2, #0]
    1d52:	e8bd 4008 	ldmia.w	sp!, {r3, lr}
    1d56:	f006 b8b5 	b.w	7ec4 <_Unwind_DeleteException>
    1d5a:	f7ff fdcd 	bl	18f8 <_ZSt9terminatev>
    1d5e:	bd08      	pop	{r3, pc}

00001d60 <_ZL12read_sleb128PKhPl>:
    1d60:	b430      	push	{r4, r5}
    1d62:	2500      	movs	r5, #0
    1d64:	462a      	mov	r2, r5
    1d66:	f810 4b01 	ldrb.w	r4, [r0], #1
    1d6a:	f004 037f 	and.w	r3, r4, #127	; 0x7f
    1d6e:	4093      	lsls	r3, r2
    1d70:	431d      	orrs	r5, r3
    1d72:	0623      	lsls	r3, r4, #24
    1d74:	f102 0207 	add.w	r2, r2, #7
    1d78:	d4f5      	bmi.n	1d66 <_ZL12read_sleb128PKhPl+0x6>
    1d7a:	2a1f      	cmp	r2, #31
    1d7c:	d805      	bhi.n	1d8a <_ZL12read_sleb128PKhPl+0x2a>
    1d7e:	0663      	lsls	r3, r4, #25
    1d80:	d503      	bpl.n	1d8a <_ZL12read_sleb128PKhPl+0x2a>
    1d82:	f04f 33ff 	mov.w	r3, #4294967295
    1d86:	4093      	lsls	r3, r2
    1d88:	431d      	orrs	r5, r3
    1d8a:	600d      	str	r5, [r1, #0]
    1d8c:	bc30      	pop	{r4, r5}
    1d8e:	4770      	bx	lr

00001d90 <_ZL28read_encoded_value_with_basehjPKhPj>:
    1d90:	b5f0      	push	{r4, r5, r6, r7, lr}
    1d92:	2850      	cmp	r0, #80	; 0x50
    1d94:	b085      	sub	sp, #20
    1d96:	4605      	mov	r5, r0
    1d98:	d045      	beq.n	1e26 <_ZL28read_encoded_value_with_basehjPKhPj+0x96>
    1d9a:	460f      	mov	r7, r1
    1d9c:	f000 010f 	and.w	r1, r0, #15
    1da0:	290c      	cmp	r1, #12
    1da2:	d83e      	bhi.n	1e22 <_ZL28read_encoded_value_with_basehjPKhPj+0x92>
    1da4:	e8df f001 	tbb	[pc, r1]
    1da8:	07392907 	ldreq	r2, [r9, -r7, lsl #18]!
    1dac:	3d3d3d17 	ldccc	13, cr3, [sp, #-92]!	; 0xffffffa4
    1db0:	071b1f3d 			; <UNDEFINED> instruction: 0x071b1f3d
    1db4:	46100017 			; <UNDEFINED> instruction: 0x46100017
    1db8:	f850 4b04 	ldr.w	r4, [r0], #4
    1dbc:	b144      	cbz	r4, 1dd0 <_ZL28read_encoded_value_with_basehjPKhPj+0x40>
    1dbe:	f005 0170 	and.w	r1, r5, #112	; 0x70
    1dc2:	2910      	cmp	r1, #16
    1dc4:	bf18      	it	ne
    1dc6:	463a      	movne	r2, r7
    1dc8:	4414      	add	r4, r2
    1dca:	062a      	lsls	r2, r5, #24
    1dcc:	bf48      	it	mi
    1dce:	6824      	ldrmi	r4, [r4, #0]
    1dd0:	601c      	str	r4, [r3, #0]
    1dd2:	b005      	add	sp, #20
    1dd4:	bdf0      	pop	{r4, r5, r6, r7, pc}
    1dd6:	4610      	mov	r0, r2
    1dd8:	f850 4b08 	ldr.w	r4, [r0], #8
    1ddc:	e7ee      	b.n	1dbc <_ZL28read_encoded_value_with_basehjPKhPj+0x2c>
    1dde:	4610      	mov	r0, r2
    1de0:	f930 4b02 	ldrsh.w	r4, [r0], #2
    1de4:	e7ea      	b.n	1dbc <_ZL28read_encoded_value_with_basehjPKhPj+0x2c>
    1de6:	4610      	mov	r0, r2
    1de8:	a903      	add	r1, sp, #12
    1dea:	9301      	str	r3, [sp, #4]
    1dec:	9200      	str	r2, [sp, #0]
    1dee:	f7ff ffb7 	bl	1d60 <_ZL12read_sleb128PKhPl>
    1df2:	e89d 000c 	ldmia.w	sp, {r2, r3}
    1df6:	9c03      	ldr	r4, [sp, #12]
    1df8:	e7e0      	b.n	1dbc <_ZL28read_encoded_value_with_basehjPKhPj+0x2c>
    1dfa:	2400      	movs	r4, #0
    1dfc:	4626      	mov	r6, r4
    1dfe:	4610      	mov	r0, r2
    1e00:	f810 eb01 	ldrb.w	lr, [r0], #1
    1e04:	f00e 017f 	and.w	r1, lr, #127	; 0x7f
    1e08:	40b1      	lsls	r1, r6
    1e0a:	f01e 0f80 	tst.w	lr, #128	; 0x80
    1e0e:	ea44 0401 	orr.w	r4, r4, r1
    1e12:	f106 0607 	add.w	r6, r6, #7
    1e16:	d1f3      	bne.n	1e00 <_ZL28read_encoded_value_with_basehjPKhPj+0x70>
    1e18:	e7d0      	b.n	1dbc <_ZL28read_encoded_value_with_basehjPKhPj+0x2c>
    1e1a:	4610      	mov	r0, r2
    1e1c:	f830 4b02 	ldrh.w	r4, [r0], #2
    1e20:	e7cc      	b.n	1dbc <_ZL28read_encoded_value_with_basehjPKhPj+0x2c>
    1e22:	f000 fa8b 	bl	233c <abort>
    1e26:	1cd0      	adds	r0, r2, #3
    1e28:	f020 0003 	bic.w	r0, r0, #3
    1e2c:	f850 4b04 	ldr.w	r4, [r0], #4
    1e30:	601c      	str	r4, [r3, #0]
    1e32:	b005      	add	sp, #20
    1e34:	bdf0      	pop	{r4, r5, r6, r7, pc}
    1e36:	bf00      	nop

00001e38 <_ZL21base_of_encoded_valuehP15_Unwind_Context>:
    1e38:	28ff      	cmp	r0, #255	; 0xff
    1e3a:	d015      	beq.n	1e68 <_ZL21base_of_encoded_valuehP15_Unwind_Context+0x30>
    1e3c:	b508      	push	{r3, lr}
    1e3e:	f000 0370 	and.w	r3, r0, #112	; 0x70
    1e42:	2b20      	cmp	r3, #32
    1e44:	d012      	beq.n	1e6c <_ZL21base_of_encoded_valuehP15_Unwind_Context+0x34>
    1e46:	d90a      	bls.n	1e5e <_ZL21base_of_encoded_valuehP15_Unwind_Context+0x26>
    1e48:	2b40      	cmp	r3, #64	; 0x40
    1e4a:	d014      	beq.n	1e76 <_ZL21base_of_encoded_valuehP15_Unwind_Context+0x3e>
    1e4c:	2b50      	cmp	r3, #80	; 0x50
    1e4e:	d017      	beq.n	1e80 <_ZL21base_of_encoded_valuehP15_Unwind_Context+0x48>
    1e50:	2b30      	cmp	r3, #48	; 0x30
    1e52:	d107      	bne.n	1e64 <_ZL21base_of_encoded_valuehP15_Unwind_Context+0x2c>
    1e54:	e8bd 4008 	ldmia.w	sp!, {r3, lr}
    1e58:	4608      	mov	r0, r1
    1e5a:	f006 be0f 	b.w	8a7c <_Unwind_GetDataRelBase>
    1e5e:	b17b      	cbz	r3, 1e80 <_ZL21base_of_encoded_valuehP15_Unwind_Context+0x48>
    1e60:	2b10      	cmp	r3, #16
    1e62:	d00d      	beq.n	1e80 <_ZL21base_of_encoded_valuehP15_Unwind_Context+0x48>
    1e64:	f000 fa6a 	bl	233c <abort>
    1e68:	2000      	movs	r0, #0
    1e6a:	4770      	bx	lr
    1e6c:	4608      	mov	r0, r1
    1e6e:	e8bd 4008 	ldmia.w	sp!, {r3, lr}
    1e72:	f006 be07 	b.w	8a84 <_Unwind_GetTextRelBase>
    1e76:	4608      	mov	r0, r1
    1e78:	e8bd 4008 	ldmia.w	sp!, {r3, lr}
    1e7c:	f006 bdee 	b.w	8a5c <_Unwind_GetRegionStart>
    1e80:	2000      	movs	r0, #0
    1e82:	bd08      	pop	{r3, pc}

00001e84 <_ZL17parse_lsda_headerP15_Unwind_ContextPKhP16lsda_header_info>:
    1e84:	b5f8      	push	{r3, r4, r5, r6, r7, lr}
    1e86:	460c      	mov	r4, r1
    1e88:	4615      	mov	r5, r2
    1e8a:	4607      	mov	r7, r0
    1e8c:	2800      	cmp	r0, #0
    1e8e:	d042      	beq.n	1f16 <_ZL17parse_lsda_headerP15_Unwind_ContextPKhP16lsda_header_info+0x92>
    1e90:	f006 fde4 	bl	8a5c <_Unwind_GetRegionStart>
    1e94:	6028      	str	r0, [r5, #0]
    1e96:	7826      	ldrb	r6, [r4, #0]
    1e98:	3401      	adds	r4, #1
    1e9a:	2eff      	cmp	r6, #255	; 0xff
    1e9c:	d032      	beq.n	1f04 <_ZL17parse_lsda_headerP15_Unwind_ContextPKhP16lsda_header_info+0x80>
    1e9e:	4639      	mov	r1, r7
    1ea0:	4630      	mov	r0, r6
    1ea2:	f7ff ffc9 	bl	1e38 <_ZL21base_of_encoded_valuehP15_Unwind_Context>
    1ea6:	4622      	mov	r2, r4
    1ea8:	4601      	mov	r1, r0
    1eaa:	1d2b      	adds	r3, r5, #4
    1eac:	4630      	mov	r0, r6
    1eae:	f7ff ff6f 	bl	1d90 <_ZL28read_encoded_value_with_basehjPKhPj>
    1eb2:	4604      	mov	r4, r0
    1eb4:	7823      	ldrb	r3, [r4, #0]
    1eb6:	1c60      	adds	r0, r4, #1
    1eb8:	2bff      	cmp	r3, #255	; 0xff
    1eba:	752b      	strb	r3, [r5, #20]
    1ebc:	d028      	beq.n	1f10 <_ZL17parse_lsda_headerP15_Unwind_ContextPKhP16lsda_header_info+0x8c>
    1ebe:	2400      	movs	r4, #0
    1ec0:	4622      	mov	r2, r4
    1ec2:	2310      	movs	r3, #16
    1ec4:	752b      	strb	r3, [r5, #20]
    1ec6:	f810 1b01 	ldrb.w	r1, [r0], #1
    1eca:	f001 037f 	and.w	r3, r1, #127	; 0x7f
    1ece:	4093      	lsls	r3, r2
    1ed0:	0609      	lsls	r1, r1, #24
    1ed2:	ea44 0403 	orr.w	r4, r4, r3
    1ed6:	f102 0207 	add.w	r2, r2, #7
    1eda:	d4f4      	bmi.n	1ec6 <_ZL17parse_lsda_headerP15_Unwind_ContextPKhP16lsda_header_info+0x42>
    1edc:	4404      	add	r4, r0
    1ede:	60ec      	str	r4, [r5, #12]
    1ee0:	2400      	movs	r4, #0
    1ee2:	4622      	mov	r2, r4
    1ee4:	7803      	ldrb	r3, [r0, #0]
    1ee6:	3001      	adds	r0, #1
    1ee8:	756b      	strb	r3, [r5, #21]
    1eea:	f810 1b01 	ldrb.w	r1, [r0], #1
    1eee:	f001 037f 	and.w	r3, r1, #127	; 0x7f
    1ef2:	4093      	lsls	r3, r2
    1ef4:	431c      	orrs	r4, r3
    1ef6:	060b      	lsls	r3, r1, #24
    1ef8:	f102 0207 	add.w	r2, r2, #7
    1efc:	d4f5      	bmi.n	1eea <_ZL17parse_lsda_headerP15_Unwind_ContextPKhP16lsda_header_info+0x66>
    1efe:	4404      	add	r4, r0
    1f00:	612c      	str	r4, [r5, #16]
    1f02:	bdf8      	pop	{r3, r4, r5, r6, r7, pc}
    1f04:	6068      	str	r0, [r5, #4]
    1f06:	7823      	ldrb	r3, [r4, #0]
    1f08:	1c60      	adds	r0, r4, #1
    1f0a:	2bff      	cmp	r3, #255	; 0xff
    1f0c:	752b      	strb	r3, [r5, #20]
    1f0e:	d1d6      	bne.n	1ebe <_ZL17parse_lsda_headerP15_Unwind_ContextPKhP16lsda_header_info+0x3a>
    1f10:	2300      	movs	r3, #0
    1f12:	60eb      	str	r3, [r5, #12]
    1f14:	e7e4      	b.n	1ee0 <_ZL17parse_lsda_headerP15_Unwind_ContextPKhP16lsda_header_info+0x5c>
    1f16:	e7bd      	b.n	1e94 <_ZL17parse_lsda_headerP15_Unwind_ContextPKhP16lsda_header_info+0x10>

00001f18 <__gxx_personality_v0>:
    1f18:	e92d 4ff0 	stmdb	sp!, {r4, r5, r6, r7, r8, r9, sl, fp, lr}
    1f1c:	f000 0303 	and.w	r3, r0, #3
    1f20:	b093      	sub	sp, #76	; 0x4c
    1f22:	2400      	movs	r4, #0
    1f24:	2b01      	cmp	r3, #1
    1f26:	460f      	mov	r7, r1
    1f28:	4615      	mov	r5, r2
    1f2a:	9406      	str	r4, [sp, #24]
    1f2c:	f000 809e 	beq.w	206c <__gxx_personality_v0+0x154>
    1f30:	d30e      	bcc.n	1f50 <__gxx_personality_v0+0x38>
    1f32:	2b02      	cmp	r3, #2
    1f34:	d10a      	bne.n	1f4c <__gxx_personality_v0+0x34>
    1f36:	4638      	mov	r0, r7
    1f38:	4629      	mov	r1, r5
    1f3a:	f006 fd7b 	bl	8a34 <__gnu_unwind_frame>
    1f3e:	2800      	cmp	r0, #0
    1f40:	f000 80af 	beq.w	20a2 <__gxx_personality_v0+0x18a>
    1f44:	2009      	movs	r0, #9
    1f46:	b013      	add	sp, #76	; 0x4c
    1f48:	e8bd 8ff0 	ldmia.w	sp!, {r4, r5, r6, r7, r8, r9, sl, fp, pc}
    1f4c:	f000 f9f6 	bl	233c <abort>
    1f50:	f000 0008 	and.w	r0, r0, #8
    1f54:	f000 01ff 	and.w	r1, r0, #255	; 0xff
    1f58:	2800      	cmp	r0, #0
    1f5a:	d1ec      	bne.n	1f36 <__gxx_personality_v0+0x1e>
    1f5c:	ab12      	add	r3, sp, #72	; 0x48
    1f5e:	f843 7d2c 	str.w	r7, [r3, #-44]!
    1f62:	9300      	str	r3, [sp, #0]
    1f64:	4610      	mov	r0, r2
    1f66:	460b      	mov	r3, r1
    1f68:	220c      	movs	r2, #12
    1f6a:	f005 ffd9 	bl	7f20 <_Unwind_VRS_Set>
    1f6e:	4628      	mov	r0, r5
    1f70:	f006 fd7a 	bl	8a68 <_Unwind_GetLanguageSpecificData>
    1f74:	f04f 0801 	mov.w	r8, #1
    1f78:	4681      	mov	r9, r0
    1f7a:	2800      	cmp	r0, #0
    1f7c:	d0db      	beq.n	1f36 <__gxx_personality_v0+0x1e>
    1f7e:	ab0c      	add	r3, sp, #48	; 0x30
    1f80:	461a      	mov	r2, r3
    1f82:	4649      	mov	r1, r9
    1f84:	4628      	mov	r0, r5
    1f86:	9303      	str	r3, [sp, #12]
    1f88:	f7ff ff7c 	bl	1e84 <_ZL17parse_lsda_headerP15_Unwind_ContextPKhP16lsda_header_info>
    1f8c:	4629      	mov	r1, r5
    1f8e:	4682      	mov	sl, r0
    1f90:	f89d 0044 	ldrb.w	r0, [sp, #68]	; 0x44
    1f94:	f7ff ff50 	bl	1e38 <_ZL21base_of_encoded_valuehP15_Unwind_Context>
    1f98:	ae0b      	add	r6, sp, #44	; 0x2c
    1f9a:	2100      	movs	r1, #0
    1f9c:	900e      	str	r0, [sp, #56]	; 0x38
    1f9e:	460b      	mov	r3, r1
    1fa0:	220f      	movs	r2, #15
    1fa2:	9600      	str	r6, [sp, #0]
    1fa4:	4628      	mov	r0, r5
    1fa6:	f005 ff93 	bl	7ed0 <_Unwind_VRS_Get>
    1faa:	9b0b      	ldr	r3, [sp, #44]	; 0x2c
    1fac:	9a10      	ldr	r2, [sp, #64]	; 0x40
    1fae:	f023 0301 	bic.w	r3, r3, #1
    1fb2:	4592      	cmp	sl, r2
    1fb4:	f103 34ff 	add.w	r4, r3, #4294967295
    1fb8:	d23a      	bcs.n	2030 <__gxx_personality_v0+0x118>
    1fba:	f89d b045 	ldrb.w	fp, [sp, #69]	; 0x45
    1fbe:	2100      	movs	r1, #0
    1fc0:	4658      	mov	r0, fp
    1fc2:	f7ff ff39 	bl	1e38 <_ZL21base_of_encoded_valuehP15_Unwind_Context>
    1fc6:	4652      	mov	r2, sl
    1fc8:	4601      	mov	r1, r0
    1fca:	ab09      	add	r3, sp, #36	; 0x24
    1fcc:	4658      	mov	r0, fp
    1fce:	f7ff fedf 	bl	1d90 <_ZL28read_encoded_value_with_basehjPKhPj>
    1fd2:	f89d a045 	ldrb.w	sl, [sp, #69]	; 0x45
    1fd6:	4683      	mov	fp, r0
    1fd8:	2100      	movs	r1, #0
    1fda:	4650      	mov	r0, sl
    1fdc:	f7ff ff2c 	bl	1e38 <_ZL21base_of_encoded_valuehP15_Unwind_Context>
    1fe0:	465a      	mov	r2, fp
    1fe2:	4601      	mov	r1, r0
    1fe4:	ab0a      	add	r3, sp, #40	; 0x28
    1fe6:	4650      	mov	r0, sl
    1fe8:	f7ff fed2 	bl	1d90 <_ZL28read_encoded_value_with_basehjPKhPj>
    1fec:	f89d a045 	ldrb.w	sl, [sp, #69]	; 0x45
    1ff0:	4683      	mov	fp, r0
    1ff2:	2100      	movs	r1, #0
    1ff4:	4650      	mov	r0, sl
    1ff6:	f7ff ff1f 	bl	1e38 <_ZL21base_of_encoded_valuehP15_Unwind_Context>
    1ffa:	465a      	mov	r2, fp
    1ffc:	4601      	mov	r1, r0
    1ffe:	4633      	mov	r3, r6
    2000:	4650      	mov	r0, sl
    2002:	f7ff fec5 	bl	1d90 <_ZL28read_encoded_value_with_basehjPKhPj>
    2006:	4682      	mov	sl, r0
    2008:	2000      	movs	r0, #0
    200a:	4601      	mov	r1, r0
    200c:	f81a eb01 	ldrb.w	lr, [sl], #1
    2010:	f00e 037f 	and.w	r3, lr, #127	; 0x7f
    2014:	408b      	lsls	r3, r1
    2016:	f01e 0f80 	tst.w	lr, #128	; 0x80
    201a:	ea40 0003 	orr.w	r0, r0, r3
    201e:	f101 0107 	add.w	r1, r1, #7
    2022:	d1f3      	bne.n	200c <__gxx_personality_v0+0xf4>
    2024:	9a09      	ldr	r2, [sp, #36]	; 0x24
    2026:	9b0c      	ldr	r3, [sp, #48]	; 0x30
    2028:	4413      	add	r3, r2
    202a:	429c      	cmp	r4, r3
    202c:	f080 8090 	bcs.w	2150 <__gxx_personality_v0+0x238>
    2030:	f04f 0a00 	mov.w	sl, #0
    2034:	2601      	movs	r6, #1
    2036:	2400      	movs	r4, #0
    2038:	f018 0f01 	tst.w	r8, #1
    203c:	f000 8091 	beq.w	2162 <__gxx_personality_v0+0x24a>
    2040:	2e02      	cmp	r6, #2
    2042:	f43f af78 	beq.w	1f36 <__gxx_personality_v0+0x1e>
    2046:	ab0a      	add	r3, sp, #40	; 0x28
    2048:	2100      	movs	r1, #0
    204a:	4628      	mov	r0, r5
    204c:	9300      	str	r3, [sp, #0]
    204e:	220d      	movs	r2, #13
    2050:	460b      	mov	r3, r1
    2052:	9d06      	ldr	r5, [sp, #24]
    2054:	f005 ff3c 	bl	7ed0 <_Unwind_VRS_Get>
    2058:	9b0a      	ldr	r3, [sp, #40]	; 0x28
    205a:	627d      	str	r5, [r7, #36]	; 0x24
    205c:	62bc      	str	r4, [r7, #40]	; 0x28
    205e:	f8c7 902c 	str.w	r9, [r7, #44]	; 0x2c
    2062:	f8c7 a030 	str.w	sl, [r7, #48]	; 0x30
    2066:	623b      	str	r3, [r7, #32]
    2068:	2006      	movs	r0, #6
    206a:	e76c      	b.n	1f46 <__gxx_personality_v0+0x2e>
    206c:	f000 0008 	and.w	r0, r0, #8
    2070:	f000 04ff 	and.w	r4, r0, #255	; 0xff
    2074:	b1c8      	cbz	r0, 20aa <__gxx_personality_v0+0x192>
    2076:	ab12      	add	r3, sp, #72	; 0x48
    2078:	2100      	movs	r1, #0
    207a:	f843 7d2c 	str.w	r7, [r3, #-44]!
    207e:	9300      	str	r3, [sp, #0]
    2080:	220c      	movs	r2, #12
    2082:	460b      	mov	r3, r1
    2084:	4628      	mov	r0, r5
    2086:	f005 ff4b 	bl	7f20 <_Unwind_VRS_Set>
    208a:	4628      	mov	r0, r5
    208c:	f006 fcec 	bl	8a68 <_Unwind_GetLanguageSpecificData>
    2090:	f044 0402 	orr.w	r4, r4, #2
    2094:	fa5f f884 	uxtb.w	r8, r4
    2098:	4681      	mov	r9, r0
    209a:	2800      	cmp	r0, #0
    209c:	f47f af6f 	bne.w	1f7e <__gxx_personality_v0+0x66>
    20a0:	e749      	b.n	1f36 <__gxx_personality_v0+0x1e>
    20a2:	2008      	movs	r0, #8
    20a4:	b013      	add	sp, #76	; 0x4c
    20a6:	e8bd 8ff0 	ldmia.w	sp!, {r4, r5, r6, r7, r8, r9, sl, fp, pc}
    20aa:	ab0c      	add	r3, sp, #48	; 0x30
    20ac:	9300      	str	r3, [sp, #0]
    20ae:	9303      	str	r3, [sp, #12]
    20b0:	4610      	mov	r0, r2
    20b2:	4623      	mov	r3, r4
    20b4:	4621      	mov	r1, r4
    20b6:	220d      	movs	r2, #13
    20b8:	6a3e      	ldr	r6, [r7, #32]
    20ba:	f005 ff09 	bl	7ed0 <_Unwind_VRS_Get>
    20be:	9b0c      	ldr	r3, [sp, #48]	; 0x30
    20c0:	429e      	cmp	r6, r3
    20c2:	d1d8      	bne.n	2076 <__gxx_personality_v0+0x15e>
    20c4:	ab12      	add	r3, sp, #72	; 0x48
    20c6:	f843 7d2c 	str.w	r7, [r3, #-44]!
    20ca:	9300      	str	r3, [sp, #0]
    20cc:	220c      	movs	r2, #12
    20ce:	4623      	mov	r3, r4
    20d0:	4628      	mov	r0, r5
    20d2:	4621      	mov	r1, r4
    20d4:	f005 ff24 	bl	7f20 <_Unwind_VRS_Set>
    20d8:	f8d7 a030 	ldr.w	sl, [r7, #48]	; 0x30
    20dc:	6abb      	ldr	r3, [r7, #40]	; 0x28
    20de:	6afa      	ldr	r2, [r7, #44]	; 0x2c
    20e0:	f1ba 0f00 	cmp.w	sl, #0
    20e4:	d042      	beq.n	216c <__gxx_personality_v0+0x254>
    20e6:	461c      	mov	r4, r3
    20e8:	4691      	mov	r9, r2
    20ea:	2603      	movs	r6, #3
    20ec:	2c00      	cmp	r4, #0
    20ee:	f2c0 80cd 	blt.w	228c <__gxx_personality_v0+0x374>
    20f2:	ab12      	add	r3, sp, #72	; 0x48
    20f4:	2100      	movs	r1, #0
    20f6:	f843 7d28 	str.w	r7, [r3, #-40]!
    20fa:	460a      	mov	r2, r1
    20fc:	9300      	str	r3, [sp, #0]
    20fe:	4628      	mov	r0, r5
    2100:	460b      	mov	r3, r1
    2102:	f005 ff0d 	bl	7f20 <_Unwind_VRS_Set>
    2106:	ab12      	add	r3, sp, #72	; 0x48
    2108:	f843 4d24 	str.w	r4, [r3, #-36]!
    210c:	2100      	movs	r1, #0
    210e:	9300      	str	r3, [sp, #0]
    2110:	2201      	movs	r2, #1
    2112:	460b      	mov	r3, r1
    2114:	4628      	mov	r0, r5
    2116:	f005 ff03 	bl	7f20 <_Unwind_VRS_Set>
    211a:	ac0a      	add	r4, sp, #40	; 0x28
    211c:	2100      	movs	r1, #0
    211e:	460b      	mov	r3, r1
    2120:	9400      	str	r4, [sp, #0]
    2122:	220f      	movs	r2, #15
    2124:	4628      	mov	r0, r5
    2126:	f005 fed3 	bl	7ed0 <_Unwind_VRS_Get>
    212a:	9b0a      	ldr	r3, [sp, #40]	; 0x28
    212c:	2100      	movs	r1, #0
    212e:	f003 0301 	and.w	r3, r3, #1
    2132:	9400      	str	r4, [sp, #0]
    2134:	4628      	mov	r0, r5
    2136:	ea4a 0403 	orr.w	r4, sl, r3
    213a:	220f      	movs	r2, #15
    213c:	460b      	mov	r3, r1
    213e:	940a      	str	r4, [sp, #40]	; 0x28
    2140:	f005 feee 	bl	7f20 <_Unwind_VRS_Set>
    2144:	2e02      	cmp	r6, #2
    2146:	d069      	beq.n	221c <__gxx_personality_v0+0x304>
    2148:	2007      	movs	r0, #7
    214a:	b013      	add	sp, #76	; 0x4c
    214c:	e8bd 8ff0 	ldmia.w	sp!, {r4, r5, r6, r7, r8, r9, sl, fp, pc}
    2150:	9a0a      	ldr	r2, [sp, #40]	; 0x28
    2152:	4413      	add	r3, r2
    2154:	429c      	cmp	r4, r3
    2156:	d313      	bcc.n	2180 <__gxx_personality_v0+0x268>
    2158:	9b10      	ldr	r3, [sp, #64]	; 0x40
    215a:	459a      	cmp	sl, r3
    215c:	f4ff af2d 	bcc.w	1fba <__gxx_personality_v0+0xa2>
    2160:	e766      	b.n	2030 <__gxx_personality_v0+0x118>
    2162:	f018 0f08 	tst.w	r8, #8
    2166:	d104      	bne.n	2172 <__gxx_personality_v0+0x25a>
    2168:	2e01      	cmp	r6, #1
    216a:	d1bf      	bne.n	20ec <__gxx_personality_v0+0x1d4>
    216c:	4638      	mov	r0, r7
    216e:	f7ff fced 	bl	1b4c <__cxa_call_terminate>
    2172:	2e01      	cmp	r6, #1
    2174:	f000 80e0 	beq.w	2338 <__gxx_personality_v0+0x420>
    2178:	2c00      	cmp	r4, #0
    217a:	daba      	bge.n	20f2 <__gxx_personality_v0+0x1da>
    217c:	f7ff fbca 	bl	1914 <_ZSt10unexpectedv>
    2180:	9b0b      	ldr	r3, [sp, #44]	; 0x2c
    2182:	2b00      	cmp	r3, #0
    2184:	f43f aed7 	beq.w	1f36 <__gxx_personality_v0+0x1e>
    2188:	9a0d      	ldr	r2, [sp, #52]	; 0x34
    218a:	eb03 0a02 	add.w	sl, r3, r2
    218e:	2800      	cmp	r0, #0
    2190:	f000 80b9 	beq.w	2306 <__gxx_personality_v0+0x3ee>
    2194:	9b10      	ldr	r3, [sp, #64]	; 0x40
    2196:	3801      	subs	r0, #1
    2198:	4418      	add	r0, r3
    219a:	f1ba 0f00 	cmp.w	sl, #0
    219e:	f43f aeca 	beq.w	1f36 <__gxx_personality_v0+0x1e>
    21a2:	2800      	cmp	r0, #0
    21a4:	f000 80b3 	beq.w	230e <__gxx_personality_v0+0x3f6>
    21a8:	f018 0308 	ands.w	r3, r8, #8
    21ac:	9305      	str	r3, [sp, #20]
    21ae:	f000 80b0 	beq.w	2312 <__gxx_personality_v0+0x3fa>
    21b2:	2247      	movs	r2, #71	; 0x47
    21b4:	234e      	movs	r3, #78	; 0x4e
    21b6:	2155      	movs	r1, #85	; 0x55
    21b8:	703a      	strb	r2, [r7, #0]
    21ba:	707b      	strb	r3, [r7, #1]
    21bc:	2243      	movs	r2, #67	; 0x43
    21be:	2346      	movs	r3, #70	; 0x46
    21c0:	70b9      	strb	r1, [r7, #2]
    21c2:	70fa      	strb	r2, [r7, #3]
    21c4:	214f      	movs	r1, #79	; 0x4f
    21c6:	2252      	movs	r2, #82	; 0x52
    21c8:	713b      	strb	r3, [r7, #4]
    21ca:	2300      	movs	r3, #0
    21cc:	7179      	strb	r1, [r7, #5]
    21ce:	71ba      	strb	r2, [r7, #6]
    21d0:	71fb      	strb	r3, [r7, #7]
    21d2:	2300      	movs	r3, #0
    21d4:	469b      	mov	fp, r3
    21d6:	9504      	str	r5, [sp, #16]
    21d8:	a908      	add	r1, sp, #32
    21da:	f7ff fdc1 	bl	1d60 <_ZL12read_sleb128PKhPl>
    21de:	a909      	add	r1, sp, #36	; 0x24
    21e0:	4604      	mov	r4, r0
    21e2:	f7ff fdbd 	bl	1d60 <_ZL12read_sleb128PKhPl>
    21e6:	9b08      	ldr	r3, [sp, #32]
    21e8:	2b00      	cmp	r3, #0
    21ea:	d032      	beq.n	2252 <__gxx_personality_v0+0x33a>
    21ec:	dd34      	ble.n	2258 <__gxx_personality_v0+0x340>
    21ee:	f89d 0044 	ldrb.w	r0, [sp, #68]	; 0x44
    21f2:	28ff      	cmp	r0, #255	; 0xff
    21f4:	d06c      	beq.n	22d0 <__gxx_personality_v0+0x3b8>
    21f6:	f000 0207 	and.w	r2, r0, #7
    21fa:	2a04      	cmp	r2, #4
    21fc:	f63f aea6 	bhi.w	1f4c <__gxx_personality_v0+0x34>
    2200:	a101      	add	r1, pc, #4	; (adr r1, 2208 <__gxx_personality_v0+0x2f0>)
    2202:	f851 f022 	ldr.w	pc, [r1, r2, lsl #2]
    2206:	bf00      	nop
    2208:	0000224d 	andeq	r2, r0, sp, asr #4
    220c:	00001f4d 	andeq	r1, r0, sp, asr #30
    2210:	00002247 	andeq	r2, r0, r7, asr #4
    2214:	0000224d 	andeq	r2, r0, sp, asr #4
    2218:	00002227 	andeq	r2, r0, r7, lsr #4
    221c:	4638      	mov	r0, r7
    221e:	f7ff fc0d 	bl	1a3c <__cxa_begin_cleanup>
    2222:	2007      	movs	r0, #7
    2224:	e68f      	b.n	1f46 <__gxx_personality_v0+0x2e>
    2226:	00db      	lsls	r3, r3, #3
    2228:	425b      	negs	r3, r3
    222a:	9a0f      	ldr	r2, [sp, #60]	; 0x3c
    222c:	990e      	ldr	r1, [sp, #56]	; 0x38
    222e:	441a      	add	r2, r3
    2230:	ab0a      	add	r3, sp, #40	; 0x28
    2232:	f7ff fdad 	bl	1d90 <_ZL28read_encoded_value_with_basehjPKhPj>
    2236:	990a      	ldr	r1, [sp, #40]	; 0x28
    2238:	b329      	cbz	r1, 2286 <__gxx_personality_v0+0x36e>
    223a:	b9ef      	cbnz	r7, 2278 <__gxx_personality_v0+0x360>
    223c:	9b09      	ldr	r3, [sp, #36]	; 0x24
    223e:	2b00      	cmp	r3, #0
    2240:	d070      	beq.n	2324 <__gxx_personality_v0+0x40c>
    2242:	18e0      	adds	r0, r4, r3
    2244:	e7c8      	b.n	21d8 <__gxx_personality_v0+0x2c0>
    2246:	005b      	lsls	r3, r3, #1
    2248:	425b      	negs	r3, r3
    224a:	e7ee      	b.n	222a <__gxx_personality_v0+0x312>
    224c:	009b      	lsls	r3, r3, #2
    224e:	425b      	negs	r3, r3
    2250:	e7eb      	b.n	222a <__gxx_personality_v0+0x312>
    2252:	f04f 0b01 	mov.w	fp, #1
    2256:	e7f1      	b.n	223c <__gxx_personality_v0+0x324>
    2258:	b117      	cbz	r7, 2260 <__gxx_personality_v0+0x348>
    225a:	9a05      	ldr	r2, [sp, #20]
    225c:	2a00      	cmp	r2, #0
    225e:	d039      	beq.n	22d4 <__gxx_personality_v0+0x3bc>
    2260:	1c5a      	adds	r2, r3, #1
    2262:	990f      	ldr	r1, [sp, #60]	; 0x3c
    2264:	ebc2 7282 	rsb	r2, r2, r2, lsl #30
    2268:	f851 2022 	ldr.w	r2, [r1, r2, lsl #2]
    226c:	2a00      	cmp	r2, #0
    226e:	d1e5      	bne.n	223c <__gxx_personality_v0+0x324>
    2270:	9d04      	ldr	r5, [sp, #16]
    2272:	461c      	mov	r4, r3
    2274:	2603      	movs	r6, #3
    2276:	e6df      	b.n	2038 <__gxx_personality_v0+0x120>
    2278:	4638      	mov	r0, r7
    227a:	2200      	movs	r2, #0
    227c:	ab06      	add	r3, sp, #24
    227e:	f7ff fb85 	bl	198c <__cxa_type_match>
    2282:	2800      	cmp	r0, #0
    2284:	d0da      	beq.n	223c <__gxx_personality_v0+0x324>
    2286:	9d04      	ldr	r5, [sp, #16]
    2288:	9b08      	ldr	r3, [sp, #32]
    228a:	e7f2      	b.n	2272 <__gxx_personality_v0+0x35a>
    228c:	9a03      	ldr	r2, [sp, #12]
    228e:	4649      	mov	r1, r9
    2290:	4628      	mov	r0, r5
    2292:	f7ff fdf7 	bl	1e84 <_ZL17parse_lsda_headerP15_Unwind_ContextPKhP16lsda_header_info>
    2296:	4629      	mov	r1, r5
    2298:	f89d 0044 	ldrb.w	r0, [sp, #68]	; 0x44
    229c:	f7ff fdcc 	bl	1e38 <_ZL21base_of_encoded_valuehP15_Unwind_Context>
    22a0:	00a2      	lsls	r2, r4, #2
    22a2:	f082 0203 	eor.w	r2, r2, #3
    22a6:	43d2      	mvns	r2, r2
    22a8:	990f      	ldr	r1, [sp, #60]	; 0x3c
    22aa:	900e      	str	r0, [sp, #56]	; 0x38
    22ac:	588b      	ldr	r3, [r1, r2]
    22ae:	eb01 0e02 	add.w	lr, r1, r2
    22b2:	b133      	cbz	r3, 22c2 <__gxx_personality_v0+0x3aa>
    22b4:	4672      	mov	r2, lr
    22b6:	2300      	movs	r3, #0
    22b8:	f852 1f04 	ldr.w	r1, [r2, #4]!
    22bc:	3301      	adds	r3, #1
    22be:	2900      	cmp	r1, #0
    22c0:	d1fa      	bne.n	22b8 <__gxx_personality_v0+0x3a0>
    22c2:	2204      	movs	r2, #4
    22c4:	62bb      	str	r3, [r7, #40]	; 0x28
    22c6:	62f8      	str	r0, [r7, #44]	; 0x2c
    22c8:	f8c7 e034 	str.w	lr, [r7, #52]	; 0x34
    22cc:	633a      	str	r2, [r7, #48]	; 0x30
    22ce:	e710      	b.n	20f2 <__gxx_personality_v0+0x1da>
    22d0:	2300      	movs	r3, #0
    22d2:	e7aa      	b.n	222a <__gxx_personality_v0+0x312>
    22d4:	980f      	ldr	r0, [sp, #60]	; 0x3c
    22d6:	1c5a      	adds	r2, r3, #1
    22d8:	ebc2 7282 	rsb	r2, r2, r2, lsl #30
    22dc:	f850 1022 	ldr.w	r1, [r0, r2, lsl #2]
    22e0:	eb00 0582 	add.w	r5, r0, r2, lsl #2
    22e4:	9a06      	ldr	r2, [sp, #24]
    22e6:	920b      	str	r2, [sp, #44]	; 0x2c
    22e8:	2900      	cmp	r1, #0
    22ea:	d0c1      	beq.n	2270 <__gxx_personality_v0+0x358>
    22ec:	4429      	add	r1, r5
    22ee:	4638      	mov	r0, r7
    22f0:	2200      	movs	r2, #0
    22f2:	4633      	mov	r3, r6
    22f4:	f7ff fb4a 	bl	198c <__cxa_type_match>
    22f8:	2800      	cmp	r0, #0
    22fa:	d19f      	bne.n	223c <__gxx_personality_v0+0x324>
    22fc:	f855 1f04 	ldr.w	r1, [r5, #4]!
    2300:	2900      	cmp	r1, #0
    2302:	d1f3      	bne.n	22ec <__gxx_personality_v0+0x3d4>
    2304:	e7bf      	b.n	2286 <__gxx_personality_v0+0x36e>
    2306:	f1ba 0f00 	cmp.w	sl, #0
    230a:	f43f ae14 	beq.w	1f36 <__gxx_personality_v0+0x1e>
    230e:	2602      	movs	r6, #2
    2310:	e691      	b.n	2036 <__gxx_personality_v0+0x11e>
    2312:	79fb      	ldrb	r3, [r7, #7]
    2314:	2b01      	cmp	r3, #1
    2316:	bf0c      	ite	eq
    2318:	f857 3c20 	ldreq.w	r3, [r7, #-32]
    231c:	f107 0358 	addne.w	r3, r7, #88	; 0x58
    2320:	9306      	str	r3, [sp, #24]
    2322:	e756      	b.n	21d2 <__gxx_personality_v0+0x2ba>
    2324:	465a      	mov	r2, fp
    2326:	9d04      	ldr	r5, [sp, #16]
    2328:	2a00      	cmp	r2, #0
    232a:	f43f ae04 	beq.w	1f36 <__gxx_personality_v0+0x1e>
    232e:	461c      	mov	r4, r3
    2330:	2602      	movs	r6, #2
    2332:	e681      	b.n	2038 <__gxx_personality_v0+0x120>
    2334:	f7ff fc88 	bl	1c48 <__cxa_begin_catch>
    2338:	f7ff fade 	bl	18f8 <_ZSt9terminatev>

0000233c <abort>:
    233c:	b508      	push	{r3, lr}
    233e:	2006      	movs	r0, #6
    2340:	f000 fef6 	bl	3130 <raise>
    2344:	2001      	movs	r0, #1
    2346:	f7fe f969 	bl	61c <_exit>
    234a:	bf00      	nop

0000234c <abs>:
    234c:	2800      	cmp	r0, #0
    234e:	bfb8      	it	lt
    2350:	4240      	neglt	r0, r0
    2352:	4770      	bx	lr

00002354 <__errno>:
    2354:	4b01      	ldr	r3, [pc, #4]	; (235c <__errno+0x8>)
    2356:	6818      	ldr	r0, [r3, #0]
    2358:	4770      	bx	lr
    235a:	bf00      	nop
    235c:	10000508 	andne	r0, r0, r8, lsl #10

00002360 <exit>:
    2360:	b508      	push	{r3, lr}
    2362:	2100      	movs	r1, #0
    2364:	4604      	mov	r4, r0
    2366:	f002 fb3d 	bl	49e4 <__call_exitprocs>
    236a:	4b04      	ldr	r3, [pc, #16]	; (237c <exit+0x1c>)
    236c:	6818      	ldr	r0, [r3, #0]
    236e:	6bc3      	ldr	r3, [r0, #60]	; 0x3c
    2370:	b103      	cbz	r3, 2374 <exit+0x14>
    2372:	4798      	blx	r3
    2374:	4620      	mov	r0, r4
    2376:	f7fe f951 	bl	61c <_exit>
    237a:	bf00      	nop
    237c:	00009784 	andeq	r9, r0, r4, lsl #15

00002380 <__sflush_r>:
    2380:	898b      	ldrh	r3, [r1, #12]
    2382:	e92d 41f0 	stmdb	sp!, {r4, r5, r6, r7, r8, lr}
    2386:	b29a      	uxth	r2, r3
    2388:	460d      	mov	r5, r1
    238a:	0711      	lsls	r1, r2, #28
    238c:	4680      	mov	r8, r0
    238e:	d43c      	bmi.n	240a <__sflush_r+0x8a>
    2390:	686a      	ldr	r2, [r5, #4]
    2392:	f443 6300 	orr.w	r3, r3, #2048	; 0x800
    2396:	2a00      	cmp	r2, #0
    2398:	81ab      	strh	r3, [r5, #12]
    239a:	dd65      	ble.n	2468 <__sflush_r+0xe8>
    239c:	6aae      	ldr	r6, [r5, #40]	; 0x28
    239e:	2e00      	cmp	r6, #0
    23a0:	d04b      	beq.n	243a <__sflush_r+0xba>
    23a2:	b29b      	uxth	r3, r3
    23a4:	f403 5280 	and.w	r2, r3, #4096	; 0x1000
    23a8:	2100      	movs	r1, #0
    23aa:	b292      	uxth	r2, r2
    23ac:	f8d8 4000 	ldr.w	r4, [r8]
    23b0:	f8c8 1000 	str.w	r1, [r8]
    23b4:	2a00      	cmp	r2, #0
    23b6:	d05b      	beq.n	2470 <__sflush_r+0xf0>
    23b8:	6d2a      	ldr	r2, [r5, #80]	; 0x50
    23ba:	075f      	lsls	r7, r3, #29
    23bc:	d505      	bpl.n	23ca <__sflush_r+0x4a>
    23be:	6869      	ldr	r1, [r5, #4]
    23c0:	6b2b      	ldr	r3, [r5, #48]	; 0x30
    23c2:	1a52      	subs	r2, r2, r1
    23c4:	b10b      	cbz	r3, 23ca <__sflush_r+0x4a>
    23c6:	6beb      	ldr	r3, [r5, #60]	; 0x3c
    23c8:	1ad2      	subs	r2, r2, r3
    23ca:	4640      	mov	r0, r8
    23cc:	69e9      	ldr	r1, [r5, #28]
    23ce:	2300      	movs	r3, #0
    23d0:	47b0      	blx	r6
    23d2:	1c46      	adds	r6, r0, #1
    23d4:	d056      	beq.n	2484 <__sflush_r+0x104>
    23d6:	89ab      	ldrh	r3, [r5, #12]
    23d8:	692a      	ldr	r2, [r5, #16]
    23da:	f423 6300 	bic.w	r3, r3, #2048	; 0x800
    23de:	b29b      	uxth	r3, r3
    23e0:	2100      	movs	r1, #0
    23e2:	602a      	str	r2, [r5, #0]
    23e4:	04da      	lsls	r2, r3, #19
    23e6:	81ab      	strh	r3, [r5, #12]
    23e8:	6069      	str	r1, [r5, #4]
    23ea:	d43b      	bmi.n	2464 <__sflush_r+0xe4>
    23ec:	6b29      	ldr	r1, [r5, #48]	; 0x30
    23ee:	f8c8 4000 	str.w	r4, [r8]
    23f2:	b311      	cbz	r1, 243a <__sflush_r+0xba>
    23f4:	f105 0340 	add.w	r3, r5, #64	; 0x40
    23f8:	4299      	cmp	r1, r3
    23fa:	d002      	beq.n	2402 <__sflush_r+0x82>
    23fc:	4640      	mov	r0, r8
    23fe:	f000 f975 	bl	26ec <_free_r>
    2402:	2000      	movs	r0, #0
    2404:	6328      	str	r0, [r5, #48]	; 0x30
    2406:	e8bd 81f0 	ldmia.w	sp!, {r4, r5, r6, r7, r8, pc}
    240a:	692e      	ldr	r6, [r5, #16]
    240c:	b1ae      	cbz	r6, 243a <__sflush_r+0xba>
    240e:	0791      	lsls	r1, r2, #30
    2410:	682c      	ldr	r4, [r5, #0]
    2412:	bf0c      	ite	eq
    2414:	696b      	ldreq	r3, [r5, #20]
    2416:	2300      	movne	r3, #0
    2418:	602e      	str	r6, [r5, #0]
    241a:	1ba4      	subs	r4, r4, r6
    241c:	60ab      	str	r3, [r5, #8]
    241e:	e00a      	b.n	2436 <__sflush_r+0xb6>
    2420:	4632      	mov	r2, r6
    2422:	4623      	mov	r3, r4
    2424:	6a6f      	ldr	r7, [r5, #36]	; 0x24
    2426:	4640      	mov	r0, r8
    2428:	69e9      	ldr	r1, [r5, #28]
    242a:	47b8      	blx	r7
    242c:	2800      	cmp	r0, #0
    242e:	eba4 0400 	sub.w	r4, r4, r0
    2432:	4406      	add	r6, r0
    2434:	dd04      	ble.n	2440 <__sflush_r+0xc0>
    2436:	2c00      	cmp	r4, #0
    2438:	dcf2      	bgt.n	2420 <__sflush_r+0xa0>
    243a:	2000      	movs	r0, #0
    243c:	e8bd 81f0 	ldmia.w	sp!, {r4, r5, r6, r7, r8, pc}
    2440:	89ab      	ldrh	r3, [r5, #12]
    2442:	f04f 30ff 	mov.w	r0, #4294967295
    2446:	f043 0340 	orr.w	r3, r3, #64	; 0x40
    244a:	81ab      	strh	r3, [r5, #12]
    244c:	e8bd 81f0 	ldmia.w	sp!, {r4, r5, r6, r7, r8, pc}
    2450:	89ab      	ldrh	r3, [r5, #12]
    2452:	692a      	ldr	r2, [r5, #16]
    2454:	f423 6300 	bic.w	r3, r3, #2048	; 0x800
    2458:	b29b      	uxth	r3, r3
    245a:	81ab      	strh	r3, [r5, #12]
    245c:	04db      	lsls	r3, r3, #19
    245e:	6069      	str	r1, [r5, #4]
    2460:	602a      	str	r2, [r5, #0]
    2462:	d5c3      	bpl.n	23ec <__sflush_r+0x6c>
    2464:	6528      	str	r0, [r5, #80]	; 0x50
    2466:	e7c1      	b.n	23ec <__sflush_r+0x6c>
    2468:	6bea      	ldr	r2, [r5, #60]	; 0x3c
    246a:	2a00      	cmp	r2, #0
    246c:	dc96      	bgt.n	239c <__sflush_r+0x1c>
    246e:	e7e4      	b.n	243a <__sflush_r+0xba>
    2470:	2301      	movs	r3, #1
    2472:	4640      	mov	r0, r8
    2474:	69e9      	ldr	r1, [r5, #28]
    2476:	47b0      	blx	r6
    2478:	1c43      	adds	r3, r0, #1
    247a:	4602      	mov	r2, r0
    247c:	d019      	beq.n	24b2 <__sflush_r+0x132>
    247e:	89ab      	ldrh	r3, [r5, #12]
    2480:	6aae      	ldr	r6, [r5, #40]	; 0x28
    2482:	e79a      	b.n	23ba <__sflush_r+0x3a>
    2484:	f8d8 1000 	ldr.w	r1, [r8]
    2488:	2900      	cmp	r1, #0
    248a:	d0e1      	beq.n	2450 <__sflush_r+0xd0>
    248c:	291d      	cmp	r1, #29
    248e:	d007      	beq.n	24a0 <__sflush_r+0x120>
    2490:	2916      	cmp	r1, #22
    2492:	d005      	beq.n	24a0 <__sflush_r+0x120>
    2494:	89ab      	ldrh	r3, [r5, #12]
    2496:	f043 0340 	orr.w	r3, r3, #64	; 0x40
    249a:	81ab      	strh	r3, [r5, #12]
    249c:	e8bd 81f0 	ldmia.w	sp!, {r4, r5, r6, r7, r8, pc}
    24a0:	89ab      	ldrh	r3, [r5, #12]
    24a2:	6929      	ldr	r1, [r5, #16]
    24a4:	f423 6300 	bic.w	r3, r3, #2048	; 0x800
    24a8:	2200      	movs	r2, #0
    24aa:	81ab      	strh	r3, [r5, #12]
    24ac:	e885 0006 	stmia.w	r5, {r1, r2}
    24b0:	e79c      	b.n	23ec <__sflush_r+0x6c>
    24b2:	f8d8 3000 	ldr.w	r3, [r8]
    24b6:	2b00      	cmp	r3, #0
    24b8:	d0e1      	beq.n	247e <__sflush_r+0xfe>
    24ba:	2b1d      	cmp	r3, #29
    24bc:	d001      	beq.n	24c2 <__sflush_r+0x142>
    24be:	2b16      	cmp	r3, #22
    24c0:	d1be      	bne.n	2440 <__sflush_r+0xc0>
    24c2:	f8c8 4000 	str.w	r4, [r8]
    24c6:	e7b8      	b.n	243a <__sflush_r+0xba>

000024c8 <_fflush_r>:
    24c8:	b510      	push	{r4, lr}
    24ca:	4604      	mov	r4, r0
    24cc:	b082      	sub	sp, #8
    24ce:	b108      	cbz	r0, 24d4 <_fflush_r+0xc>
    24d0:	6b83      	ldr	r3, [r0, #56]	; 0x38
    24d2:	b153      	cbz	r3, 24ea <_fflush_r+0x22>
    24d4:	f9b1 000c 	ldrsh.w	r0, [r1, #12]
    24d8:	b908      	cbnz	r0, 24de <_fflush_r+0x16>
    24da:	b002      	add	sp, #8
    24dc:	bd10      	pop	{r4, pc}
    24de:	4620      	mov	r0, r4
    24e0:	b002      	add	sp, #8
    24e2:	e8bd 4010 	ldmia.w	sp!, {r4, lr}
    24e6:	f7ff bf4b 	b.w	2380 <__sflush_r>
    24ea:	9101      	str	r1, [sp, #4]
    24ec:	f000 f892 	bl	2614 <__sinit>
    24f0:	9901      	ldr	r1, [sp, #4]
    24f2:	e7ef      	b.n	24d4 <_fflush_r+0xc>

000024f4 <fflush>:
    24f4:	b120      	cbz	r0, 2500 <fflush+0xc>
    24f6:	4b05      	ldr	r3, [pc, #20]	; (250c <fflush+0x18>)
    24f8:	4601      	mov	r1, r0
    24fa:	6818      	ldr	r0, [r3, #0]
    24fc:	f7ff bfe4 	b.w	24c8 <_fflush_r>
    2500:	4b03      	ldr	r3, [pc, #12]	; (2510 <fflush+0x1c>)
    2502:	4904      	ldr	r1, [pc, #16]	; (2514 <fflush+0x20>)
    2504:	6818      	ldr	r0, [r3, #0]
    2506:	f000 b9c9 	b.w	289c <_fwalk_reent>
    250a:	bf00      	nop
    250c:	10000508 	andne	r0, r0, r8, lsl #10
    2510:	00009784 	andeq	r9, r0, r4, lsl #15
    2514:	000024c9 	andeq	r2, r0, r9, asr #9

00002518 <_cleanup_r>:
    2518:	4901      	ldr	r1, [pc, #4]	; (2520 <_cleanup_r+0x8>)
    251a:	f000 b9bf 	b.w	289c <_fwalk_reent>
    251e:	bf00      	nop
    2520:	00005abd 			; <UNDEFINED> instruction: 0x00005abd

00002524 <__sinit.part.1>:
    2524:	e92d 4ff0 	stmdb	sp!, {r4, r5, r6, r7, r8, r9, sl, fp, lr}
    2528:	4607      	mov	r7, r0
    252a:	4835      	ldr	r0, [pc, #212]	; (2600 <__sinit.part.1+0xdc>)
    252c:	687d      	ldr	r5, [r7, #4]
    252e:	2400      	movs	r4, #0
    2530:	f507 723b 	add.w	r2, r7, #748	; 0x2ec
    2534:	2304      	movs	r3, #4
    2536:	2103      	movs	r1, #3
    2538:	63f8      	str	r0, [r7, #60]	; 0x3c
    253a:	f8c7 12e4 	str.w	r1, [r7, #740]	; 0x2e4
    253e:	f8c7 22e8 	str.w	r2, [r7, #744]	; 0x2e8
    2542:	f8c7 42e0 	str.w	r4, [r7, #736]	; 0x2e0
    2546:	b083      	sub	sp, #12
    2548:	602c      	str	r4, [r5, #0]
    254a:	606c      	str	r4, [r5, #4]
    254c:	60ac      	str	r4, [r5, #8]
    254e:	666c      	str	r4, [r5, #100]	; 0x64
    2550:	81ec      	strh	r4, [r5, #14]
    2552:	612c      	str	r4, [r5, #16]
    2554:	616c      	str	r4, [r5, #20]
    2556:	61ac      	str	r4, [r5, #24]
    2558:	81ab      	strh	r3, [r5, #12]
    255a:	4621      	mov	r1, r4
    255c:	f105 005c 	add.w	r0, r5, #92	; 0x5c
    2560:	2208      	movs	r2, #8
    2562:	f000 fd41 	bl	2fe8 <memset>
    2566:	f8df b09c 	ldr.w	fp, [pc, #156]	; 2604 <__sinit.part.1+0xe0>
    256a:	68be      	ldr	r6, [r7, #8]
    256c:	f8df a098 	ldr.w	sl, [pc, #152]	; 2608 <__sinit.part.1+0xe4>
    2570:	f8df 9098 	ldr.w	r9, [pc, #152]	; 260c <__sinit.part.1+0xe8>
    2574:	f8df 8098 	ldr.w	r8, [pc, #152]	; 2610 <__sinit.part.1+0xec>
    2578:	2301      	movs	r3, #1
    257a:	2209      	movs	r2, #9
    257c:	f8c5 b020 	str.w	fp, [r5, #32]
    2580:	f8c5 a024 	str.w	sl, [r5, #36]	; 0x24
    2584:	f8c5 9028 	str.w	r9, [r5, #40]	; 0x28
    2588:	f8c5 802c 	str.w	r8, [r5, #44]	; 0x2c
    258c:	61ed      	str	r5, [r5, #28]
    258e:	4621      	mov	r1, r4
    2590:	81f3      	strh	r3, [r6, #14]
    2592:	81b2      	strh	r2, [r6, #12]
    2594:	f106 005c 	add.w	r0, r6, #92	; 0x5c
    2598:	6034      	str	r4, [r6, #0]
    259a:	6074      	str	r4, [r6, #4]
    259c:	60b4      	str	r4, [r6, #8]
    259e:	6674      	str	r4, [r6, #100]	; 0x64
    25a0:	6134      	str	r4, [r6, #16]
    25a2:	6174      	str	r4, [r6, #20]
    25a4:	61b4      	str	r4, [r6, #24]
    25a6:	2208      	movs	r2, #8
    25a8:	9301      	str	r3, [sp, #4]
    25aa:	f000 fd1d 	bl	2fe8 <memset>
    25ae:	68fd      	ldr	r5, [r7, #12]
    25b0:	2012      	movs	r0, #18
    25b2:	2202      	movs	r2, #2
    25b4:	61f6      	str	r6, [r6, #28]
    25b6:	f8c6 b020 	str.w	fp, [r6, #32]
    25ba:	f8c6 a024 	str.w	sl, [r6, #36]	; 0x24
    25be:	f8c6 9028 	str.w	r9, [r6, #40]	; 0x28
    25c2:	f8c6 802c 	str.w	r8, [r6, #44]	; 0x2c
    25c6:	4621      	mov	r1, r4
    25c8:	81a8      	strh	r0, [r5, #12]
    25ca:	81ea      	strh	r2, [r5, #14]
    25cc:	602c      	str	r4, [r5, #0]
    25ce:	606c      	str	r4, [r5, #4]
    25d0:	60ac      	str	r4, [r5, #8]
    25d2:	666c      	str	r4, [r5, #100]	; 0x64
    25d4:	612c      	str	r4, [r5, #16]
    25d6:	616c      	str	r4, [r5, #20]
    25d8:	61ac      	str	r4, [r5, #24]
    25da:	f105 005c 	add.w	r0, r5, #92	; 0x5c
    25de:	2208      	movs	r2, #8
    25e0:	f000 fd02 	bl	2fe8 <memset>
    25e4:	9b01      	ldr	r3, [sp, #4]
    25e6:	61ed      	str	r5, [r5, #28]
    25e8:	f8c5 b020 	str.w	fp, [r5, #32]
    25ec:	f8c5 a024 	str.w	sl, [r5, #36]	; 0x24
    25f0:	f8c5 9028 	str.w	r9, [r5, #40]	; 0x28
    25f4:	f8c5 802c 	str.w	r8, [r5, #44]	; 0x2c
    25f8:	63bb      	str	r3, [r7, #56]	; 0x38
    25fa:	b003      	add	sp, #12
    25fc:	e8bd 8ff0 	ldmia.w	sp!, {r4, r5, r6, r7, r8, r9, sl, fp, pc}
    2600:	00002519 	andeq	r2, r0, r9, lsl r5
    2604:	0000316d 	andeq	r3, r0, sp, ror #2
    2608:	00003191 	muleq	r0, r1, r1
    260c:	000031c9 	andeq	r3, r0, r9, asr #3
    2610:	000031e9 	andeq	r3, r0, r9, ror #3

00002614 <__sinit>:
    2614:	6b83      	ldr	r3, [r0, #56]	; 0x38
    2616:	b103      	cbz	r3, 261a <__sinit+0x6>
    2618:	4770      	bx	lr
    261a:	f7ff bf83 	b.w	2524 <__sinit.part.1>
    261e:	bf00      	nop

00002620 <__sfp_lock_acquire>:
    2620:	4770      	bx	lr
    2622:	bf00      	nop

00002624 <__sfp_lock_release>:
    2624:	4770      	bx	lr
    2626:	bf00      	nop

00002628 <fprintf>:
    2628:	b40e      	push	{r1, r2, r3}
    262a:	b530      	push	{r4, r5, lr}
    262c:	b082      	sub	sp, #8
    262e:	ac05      	add	r4, sp, #20
    2630:	f854 2b04 	ldr.w	r2, [r4], #4
    2634:	4d05      	ldr	r5, [pc, #20]	; (264c <fprintf+0x24>)
    2636:	4601      	mov	r1, r0
    2638:	4623      	mov	r3, r4
    263a:	6828      	ldr	r0, [r5, #0]
    263c:	9401      	str	r4, [sp, #4]
    263e:	f000 fee3 	bl	3408 <_vfprintf_r>
    2642:	b002      	add	sp, #8
    2644:	e8bd 4030 	ldmia.w	sp!, {r4, r5, lr}
    2648:	b003      	add	sp, #12
    264a:	4770      	bx	lr
    264c:	10000508 	andne	r0, r0, r8, lsl #10

00002650 <_malloc_trim_r>:
    2650:	b5f8      	push	{r3, r4, r5, r6, r7, lr}
    2652:	460c      	mov	r4, r1
    2654:	4f22      	ldr	r7, [pc, #136]	; (26e0 <_malloc_trim_r+0x90>)
    2656:	4606      	mov	r6, r0
    2658:	f000 fd14 	bl	3084 <__malloc_lock>
    265c:	68bb      	ldr	r3, [r7, #8]
    265e:	685d      	ldr	r5, [r3, #4]
    2660:	f025 0503 	bic.w	r5, r5, #3
    2664:	1b29      	subs	r1, r5, r4
    2666:	f601 71ef 	addw	r1, r1, #4079	; 0xfef
    266a:	f421 617f 	bic.w	r1, r1, #4080	; 0xff0
    266e:	f021 010f 	bic.w	r1, r1, #15
    2672:	f5a1 5480 	sub.w	r4, r1, #4096	; 0x1000
    2676:	f5b4 5f80 	cmp.w	r4, #4096	; 0x1000
    267a:	db07      	blt.n	268c <_malloc_trim_r+0x3c>
    267c:	4630      	mov	r0, r6
    267e:	2100      	movs	r1, #0
    2680:	f000 fd18 	bl	30b4 <_sbrk_r>
    2684:	68bb      	ldr	r3, [r7, #8]
    2686:	442b      	add	r3, r5
    2688:	4298      	cmp	r0, r3
    268a:	d004      	beq.n	2696 <_malloc_trim_r+0x46>
    268c:	4630      	mov	r0, r6
    268e:	f000 fcfb 	bl	3088 <__malloc_unlock>
    2692:	2000      	movs	r0, #0
    2694:	bdf8      	pop	{r3, r4, r5, r6, r7, pc}
    2696:	4630      	mov	r0, r6
    2698:	4261      	negs	r1, r4
    269a:	f000 fd0b 	bl	30b4 <_sbrk_r>
    269e:	3001      	adds	r0, #1
    26a0:	d00d      	beq.n	26be <_malloc_trim_r+0x6e>
    26a2:	4b10      	ldr	r3, [pc, #64]	; (26e4 <_malloc_trim_r+0x94>)
    26a4:	68ba      	ldr	r2, [r7, #8]
    26a6:	6819      	ldr	r1, [r3, #0]
    26a8:	1b2d      	subs	r5, r5, r4
    26aa:	f045 0501 	orr.w	r5, r5, #1
    26ae:	4630      	mov	r0, r6
    26b0:	1b09      	subs	r1, r1, r4
    26b2:	6055      	str	r5, [r2, #4]
    26b4:	6019      	str	r1, [r3, #0]
    26b6:	f000 fce7 	bl	3088 <__malloc_unlock>
    26ba:	2001      	movs	r0, #1
    26bc:	bdf8      	pop	{r3, r4, r5, r6, r7, pc}
    26be:	4630      	mov	r0, r6
    26c0:	2100      	movs	r1, #0
    26c2:	f000 fcf7 	bl	30b4 <_sbrk_r>
    26c6:	68ba      	ldr	r2, [r7, #8]
    26c8:	1a83      	subs	r3, r0, r2
    26ca:	2b0f      	cmp	r3, #15
    26cc:	ddde      	ble.n	268c <_malloc_trim_r+0x3c>
    26ce:	4c06      	ldr	r4, [pc, #24]	; (26e8 <_malloc_trim_r+0x98>)
    26d0:	4904      	ldr	r1, [pc, #16]	; (26e4 <_malloc_trim_r+0x94>)
    26d2:	6824      	ldr	r4, [r4, #0]
    26d4:	f043 0301 	orr.w	r3, r3, #1
    26d8:	1b00      	subs	r0, r0, r4
    26da:	6053      	str	r3, [r2, #4]
    26dc:	6008      	str	r0, [r1, #0]
    26de:	e7d5      	b.n	268c <_malloc_trim_r+0x3c>
    26e0:	1000050c 	andne	r0, r0, ip, lsl #10
    26e4:	100013e8 	andne	r1, r0, r8, ror #7
    26e8:	10000918 	andne	r0, r0, r8, lsl r9

000026ec <_free_r>:
    26ec:	2900      	cmp	r1, #0
    26ee:	d04e      	beq.n	278e <_free_r+0xa2>
    26f0:	e92d 41f0 	stmdb	sp!, {r4, r5, r6, r7, r8, lr}
    26f4:	460c      	mov	r4, r1
    26f6:	4680      	mov	r8, r0
    26f8:	f000 fcc4 	bl	3084 <__malloc_lock>
    26fc:	f854 7c04 	ldr.w	r7, [r4, #-4]
    2700:	4962      	ldr	r1, [pc, #392]	; (288c <_free_r+0x1a0>)
    2702:	f1a4 0508 	sub.w	r5, r4, #8
    2706:	f027 0201 	bic.w	r2, r7, #1
    270a:	18ab      	adds	r3, r5, r2
    270c:	688e      	ldr	r6, [r1, #8]
    270e:	6858      	ldr	r0, [r3, #4]
    2710:	429e      	cmp	r6, r3
    2712:	f020 0003 	bic.w	r0, r0, #3
    2716:	d05a      	beq.n	27ce <_free_r+0xe2>
    2718:	07fe      	lsls	r6, r7, #31
    271a:	6058      	str	r0, [r3, #4]
    271c:	d40b      	bmi.n	2736 <_free_r+0x4a>
    271e:	f854 7c08 	ldr.w	r7, [r4, #-8]
    2722:	f101 0e08 	add.w	lr, r1, #8
    2726:	1bed      	subs	r5, r5, r7
    2728:	68ac      	ldr	r4, [r5, #8]
    272a:	443a      	add	r2, r7
    272c:	4574      	cmp	r4, lr
    272e:	d067      	beq.n	2800 <_free_r+0x114>
    2730:	68ef      	ldr	r7, [r5, #12]
    2732:	60e7      	str	r7, [r4, #12]
    2734:	60bc      	str	r4, [r7, #8]
    2736:	181c      	adds	r4, r3, r0
    2738:	6864      	ldr	r4, [r4, #4]
    273a:	07e4      	lsls	r4, r4, #31
    273c:	d40c      	bmi.n	2758 <_free_r+0x6c>
    273e:	4f54      	ldr	r7, [pc, #336]	; (2890 <_free_r+0x1a4>)
    2740:	689c      	ldr	r4, [r3, #8]
    2742:	4402      	add	r2, r0
    2744:	42bc      	cmp	r4, r7
    2746:	d07c      	beq.n	2842 <_free_r+0x156>
    2748:	68d8      	ldr	r0, [r3, #12]
    274a:	f042 0301 	orr.w	r3, r2, #1
    274e:	60e0      	str	r0, [r4, #12]
    2750:	6084      	str	r4, [r0, #8]
    2752:	606b      	str	r3, [r5, #4]
    2754:	50aa      	str	r2, [r5, r2]
    2756:	e003      	b.n	2760 <_free_r+0x74>
    2758:	f042 0301 	orr.w	r3, r2, #1
    275c:	606b      	str	r3, [r5, #4]
    275e:	50aa      	str	r2, [r5, r2]
    2760:	f5b2 7f00 	cmp.w	r2, #512	; 0x200
    2764:	d214      	bcs.n	2790 <_free_r+0xa4>
    2766:	08d2      	lsrs	r2, r2, #3
    2768:	eb01 03c2 	add.w	r3, r1, r2, lsl #3
    276c:	2401      	movs	r4, #1
    276e:	6848      	ldr	r0, [r1, #4]
    2770:	1092      	asrs	r2, r2, #2
    2772:	fa04 f202 	lsl.w	r2, r4, r2
    2776:	689c      	ldr	r4, [r3, #8]
    2778:	4310      	orrs	r0, r2
    277a:	60ac      	str	r4, [r5, #8]
    277c:	60eb      	str	r3, [r5, #12]
    277e:	6048      	str	r0, [r1, #4]
    2780:	609d      	str	r5, [r3, #8]
    2782:	60e5      	str	r5, [r4, #12]
    2784:	4640      	mov	r0, r8
    2786:	e8bd 41f0 	ldmia.w	sp!, {r4, r5, r6, r7, r8, lr}
    278a:	f000 bc7d 	b.w	3088 <__malloc_unlock>
    278e:	4770      	bx	lr
    2790:	0a53      	lsrs	r3, r2, #9
    2792:	2b04      	cmp	r3, #4
    2794:	d847      	bhi.n	2826 <_free_r+0x13a>
    2796:	0993      	lsrs	r3, r2, #6
    2798:	f103 0438 	add.w	r4, r3, #56	; 0x38
    279c:	0060      	lsls	r0, r4, #1
    279e:	eb01 0080 	add.w	r0, r1, r0, lsl #2
    27a2:	6883      	ldr	r3, [r0, #8]
    27a4:	4939      	ldr	r1, [pc, #228]	; (288c <_free_r+0x1a0>)
    27a6:	4283      	cmp	r3, r0
    27a8:	d043      	beq.n	2832 <_free_r+0x146>
    27aa:	6859      	ldr	r1, [r3, #4]
    27ac:	f021 0103 	bic.w	r1, r1, #3
    27b0:	4291      	cmp	r1, r2
    27b2:	d902      	bls.n	27ba <_free_r+0xce>
    27b4:	689b      	ldr	r3, [r3, #8]
    27b6:	4298      	cmp	r0, r3
    27b8:	d1f7      	bne.n	27aa <_free_r+0xbe>
    27ba:	68da      	ldr	r2, [r3, #12]
    27bc:	60ea      	str	r2, [r5, #12]
    27be:	60ab      	str	r3, [r5, #8]
    27c0:	4640      	mov	r0, r8
    27c2:	6095      	str	r5, [r2, #8]
    27c4:	60dd      	str	r5, [r3, #12]
    27c6:	e8bd 41f0 	ldmia.w	sp!, {r4, r5, r6, r7, r8, lr}
    27ca:	f000 bc5d 	b.w	3088 <__malloc_unlock>
    27ce:	07ff      	lsls	r7, r7, #31
    27d0:	4402      	add	r2, r0
    27d2:	d407      	bmi.n	27e4 <_free_r+0xf8>
    27d4:	f854 4c08 	ldr.w	r4, [r4, #-8]
    27d8:	1b2d      	subs	r5, r5, r4
    27da:	68eb      	ldr	r3, [r5, #12]
    27dc:	68a8      	ldr	r0, [r5, #8]
    27de:	4422      	add	r2, r4
    27e0:	60c3      	str	r3, [r0, #12]
    27e2:	6098      	str	r0, [r3, #8]
    27e4:	4b2b      	ldr	r3, [pc, #172]	; (2894 <_free_r+0x1a8>)
    27e6:	f042 0001 	orr.w	r0, r2, #1
    27ea:	681b      	ldr	r3, [r3, #0]
    27ec:	6068      	str	r0, [r5, #4]
    27ee:	429a      	cmp	r2, r3
    27f0:	608d      	str	r5, [r1, #8]
    27f2:	d3c7      	bcc.n	2784 <_free_r+0x98>
    27f4:	4b28      	ldr	r3, [pc, #160]	; (2898 <_free_r+0x1ac>)
    27f6:	4640      	mov	r0, r8
    27f8:	6819      	ldr	r1, [r3, #0]
    27fa:	f7ff ff29 	bl	2650 <_malloc_trim_r>
    27fe:	e7c1      	b.n	2784 <_free_r+0x98>
    2800:	1819      	adds	r1, r3, r0
    2802:	6849      	ldr	r1, [r1, #4]
    2804:	07c9      	lsls	r1, r1, #31
    2806:	d409      	bmi.n	281c <_free_r+0x130>
    2808:	68d9      	ldr	r1, [r3, #12]
    280a:	4402      	add	r2, r0
    280c:	689b      	ldr	r3, [r3, #8]
    280e:	f042 0001 	orr.w	r0, r2, #1
    2812:	60d9      	str	r1, [r3, #12]
    2814:	608b      	str	r3, [r1, #8]
    2816:	6068      	str	r0, [r5, #4]
    2818:	50aa      	str	r2, [r5, r2]
    281a:	e7b3      	b.n	2784 <_free_r+0x98>
    281c:	f042 0301 	orr.w	r3, r2, #1
    2820:	606b      	str	r3, [r5, #4]
    2822:	50aa      	str	r2, [r5, r2]
    2824:	e7ae      	b.n	2784 <_free_r+0x98>
    2826:	2b14      	cmp	r3, #20
    2828:	d814      	bhi.n	2854 <_free_r+0x168>
    282a:	f103 045b 	add.w	r4, r3, #91	; 0x5b
    282e:	0060      	lsls	r0, r4, #1
    2830:	e7b5      	b.n	279e <_free_r+0xb2>
    2832:	684a      	ldr	r2, [r1, #4]
    2834:	10a4      	asrs	r4, r4, #2
    2836:	2001      	movs	r0, #1
    2838:	40a0      	lsls	r0, r4
    283a:	4302      	orrs	r2, r0
    283c:	604a      	str	r2, [r1, #4]
    283e:	461a      	mov	r2, r3
    2840:	e7bc      	b.n	27bc <_free_r+0xd0>
    2842:	f042 0301 	orr.w	r3, r2, #1
    2846:	614d      	str	r5, [r1, #20]
    2848:	610d      	str	r5, [r1, #16]
    284a:	60ec      	str	r4, [r5, #12]
    284c:	60ac      	str	r4, [r5, #8]
    284e:	606b      	str	r3, [r5, #4]
    2850:	50aa      	str	r2, [r5, r2]
    2852:	e797      	b.n	2784 <_free_r+0x98>
    2854:	2b54      	cmp	r3, #84	; 0x54
    2856:	d804      	bhi.n	2862 <_free_r+0x176>
    2858:	0b13      	lsrs	r3, r2, #12
    285a:	f103 046e 	add.w	r4, r3, #110	; 0x6e
    285e:	0060      	lsls	r0, r4, #1
    2860:	e79d      	b.n	279e <_free_r+0xb2>
    2862:	f5b3 7faa 	cmp.w	r3, #340	; 0x154
    2866:	d804      	bhi.n	2872 <_free_r+0x186>
    2868:	0bd3      	lsrs	r3, r2, #15
    286a:	f103 0477 	add.w	r4, r3, #119	; 0x77
    286e:	0060      	lsls	r0, r4, #1
    2870:	e795      	b.n	279e <_free_r+0xb2>
    2872:	f240 5054 	movw	r0, #1364	; 0x554
    2876:	4283      	cmp	r3, r0
    2878:	d804      	bhi.n	2884 <_free_r+0x198>
    287a:	0c93      	lsrs	r3, r2, #18
    287c:	f103 047c 	add.w	r4, r3, #124	; 0x7c
    2880:	0060      	lsls	r0, r4, #1
    2882:	e78c      	b.n	279e <_free_r+0xb2>
    2884:	20fc      	movs	r0, #252	; 0xfc
    2886:	247e      	movs	r4, #126	; 0x7e
    2888:	e789      	b.n	279e <_free_r+0xb2>
    288a:	bf00      	nop
    288c:	1000050c 	andne	r0, r0, ip, lsl #10
    2890:	10000514 	andne	r0, r0, r4, lsl r5
    2894:	10000914 	andne	r0, r0, r4, lsl r9
    2898:	100013e4 	andne	r1, r0, r4, ror #7

0000289c <_fwalk_reent>:
    289c:	e92d 43f8 	stmdb	sp!, {r3, r4, r5, r6, r7, r8, r9, lr}
    28a0:	f510 7638 	adds.w	r6, r0, #736	; 0x2e0
    28a4:	d01e      	beq.n	28e4 <_fwalk_reent+0x48>
    28a6:	4688      	mov	r8, r1
    28a8:	4607      	mov	r7, r0
    28aa:	f04f 0900 	mov.w	r9, #0
    28ae:	6875      	ldr	r5, [r6, #4]
    28b0:	68b4      	ldr	r4, [r6, #8]
    28b2:	3d01      	subs	r5, #1
    28b4:	d410      	bmi.n	28d8 <_fwalk_reent+0x3c>
    28b6:	89a3      	ldrh	r3, [r4, #12]
    28b8:	3d01      	subs	r5, #1
    28ba:	2b01      	cmp	r3, #1
    28bc:	d908      	bls.n	28d0 <_fwalk_reent+0x34>
    28be:	f9b4 300e 	ldrsh.w	r3, [r4, #14]
    28c2:	3301      	adds	r3, #1
    28c4:	d004      	beq.n	28d0 <_fwalk_reent+0x34>
    28c6:	4638      	mov	r0, r7
    28c8:	4621      	mov	r1, r4
    28ca:	47c0      	blx	r8
    28cc:	ea49 0900 	orr.w	r9, r9, r0
    28d0:	1c6b      	adds	r3, r5, #1
    28d2:	f104 0468 	add.w	r4, r4, #104	; 0x68
    28d6:	d1ee      	bne.n	28b6 <_fwalk_reent+0x1a>
    28d8:	6836      	ldr	r6, [r6, #0]
    28da:	2e00      	cmp	r6, #0
    28dc:	d1e7      	bne.n	28ae <_fwalk_reent+0x12>
    28de:	4648      	mov	r0, r9
    28e0:	e8bd 83f8 	ldmia.w	sp!, {r3, r4, r5, r6, r7, r8, r9, pc}
    28e4:	46b1      	mov	r9, r6
    28e6:	4648      	mov	r0, r9
    28e8:	e8bd 83f8 	ldmia.w	sp!, {r3, r4, r5, r6, r7, r8, r9, pc}

000028ec <__libc_init_array>:
    28ec:	b570      	push	{r4, r5, r6, lr}
    28ee:	4e0f      	ldr	r6, [pc, #60]	; (292c <__libc_init_array+0x40>)
    28f0:	4d0f      	ldr	r5, [pc, #60]	; (2930 <__libc_init_array+0x44>)
    28f2:	1b76      	subs	r6, r6, r5
    28f4:	10b6      	asrs	r6, r6, #2
    28f6:	bf18      	it	ne
    28f8:	2400      	movne	r4, #0
    28fa:	d005      	beq.n	2908 <__libc_init_array+0x1c>
    28fc:	3401      	adds	r4, #1
    28fe:	f855 3b04 	ldr.w	r3, [r5], #4
    2902:	4798      	blx	r3
    2904:	42a6      	cmp	r6, r4
    2906:	d1f9      	bne.n	28fc <__libc_init_array+0x10>
    2908:	4e0a      	ldr	r6, [pc, #40]	; (2934 <__libc_init_array+0x48>)
    290a:	4d0b      	ldr	r5, [pc, #44]	; (2938 <__libc_init_array+0x4c>)
    290c:	f006 fb5e 	bl	8fcc <_init>
    2910:	1b76      	subs	r6, r6, r5
    2912:	10b6      	asrs	r6, r6, #2
    2914:	bf18      	it	ne
    2916:	2400      	movne	r4, #0
    2918:	d006      	beq.n	2928 <__libc_init_array+0x3c>
    291a:	3401      	adds	r4, #1
    291c:	f855 3b04 	ldr.w	r3, [r5], #4
    2920:	4798      	blx	r3
    2922:	42a6      	cmp	r6, r4
    2924:	d1f9      	bne.n	291a <__libc_init_array+0x2e>
    2926:	bd70      	pop	{r4, r5, r6, pc}
    2928:	bd70      	pop	{r4, r5, r6, pc}
    292a:	bf00      	nop
    292c:	1000097c 	andne	r0, r0, ip, ror r9
    2930:	1000097c 	andne	r0, r0, ip, ror r9
    2934:	10000988 	andne	r0, r0, r8, lsl #19
    2938:	1000097c 	andne	r0, r0, ip, ror r9

0000293c <malloc>:
    293c:	4b02      	ldr	r3, [pc, #8]	; (2948 <malloc+0xc>)
    293e:	4601      	mov	r1, r0
    2940:	6818      	ldr	r0, [r3, #0]
    2942:	f000 b80b 	b.w	295c <_malloc_r>
    2946:	bf00      	nop
    2948:	10000508 	andne	r0, r0, r8, lsl #10

0000294c <free>:
    294c:	4b02      	ldr	r3, [pc, #8]	; (2958 <free+0xc>)
    294e:	4601      	mov	r1, r0
    2950:	6818      	ldr	r0, [r3, #0]
    2952:	f7ff becb 	b.w	26ec <_free_r>
    2956:	bf00      	nop
    2958:	10000508 	andne	r0, r0, r8, lsl #10

0000295c <_malloc_r>:
    295c:	e92d 4ff0 	stmdb	sp!, {r4, r5, r6, r7, r8, r9, sl, fp, lr}
    2960:	f101 050b 	add.w	r5, r1, #11
    2964:	2d16      	cmp	r5, #22
    2966:	b083      	sub	sp, #12
    2968:	4606      	mov	r6, r0
    296a:	d927      	bls.n	29bc <_malloc_r+0x60>
    296c:	f035 0507 	bics.w	r5, r5, #7
    2970:	f100 80b6 	bmi.w	2ae0 <_malloc_r+0x184>
    2974:	42a9      	cmp	r1, r5
    2976:	f200 80b3 	bhi.w	2ae0 <_malloc_r+0x184>
    297a:	f000 fb83 	bl	3084 <__malloc_lock>
    297e:	f5b5 7ffc 	cmp.w	r5, #504	; 0x1f8
    2982:	d222      	bcs.n	29ca <_malloc_r+0x6e>
    2984:	4fbc      	ldr	r7, [pc, #752]	; (2c78 <_malloc_r+0x31c>)
    2986:	08e8      	lsrs	r0, r5, #3
    2988:	eb07 03c0 	add.w	r3, r7, r0, lsl #3
    298c:	68dc      	ldr	r4, [r3, #12]
    298e:	429c      	cmp	r4, r3
    2990:	f000 81bc 	beq.w	2d0c <_malloc_r+0x3b0>
    2994:	6863      	ldr	r3, [r4, #4]
    2996:	68e1      	ldr	r1, [r4, #12]
    2998:	f023 0303 	bic.w	r3, r3, #3
    299c:	4423      	add	r3, r4
    299e:	685a      	ldr	r2, [r3, #4]
    29a0:	68a5      	ldr	r5, [r4, #8]
    29a2:	f042 0201 	orr.w	r2, r2, #1
    29a6:	60e9      	str	r1, [r5, #12]
    29a8:	4630      	mov	r0, r6
    29aa:	608d      	str	r5, [r1, #8]
    29ac:	605a      	str	r2, [r3, #4]
    29ae:	f000 fb6b 	bl	3088 <__malloc_unlock>
    29b2:	3408      	adds	r4, #8
    29b4:	4620      	mov	r0, r4
    29b6:	b003      	add	sp, #12
    29b8:	e8bd 8ff0 	ldmia.w	sp!, {r4, r5, r6, r7, r8, r9, sl, fp, pc}
    29bc:	2910      	cmp	r1, #16
    29be:	f200 808f 	bhi.w	2ae0 <_malloc_r+0x184>
    29c2:	f000 fb5f 	bl	3084 <__malloc_lock>
    29c6:	2510      	movs	r5, #16
    29c8:	e7dc      	b.n	2984 <_malloc_r+0x28>
    29ca:	0a68      	lsrs	r0, r5, #9
    29cc:	f000 808f 	beq.w	2aee <_malloc_r+0x192>
    29d0:	2804      	cmp	r0, #4
    29d2:	f200 8147 	bhi.w	2c64 <_malloc_r+0x308>
    29d6:	09a8      	lsrs	r0, r5, #6
    29d8:	3038      	adds	r0, #56	; 0x38
    29da:	0041      	lsls	r1, r0, #1
    29dc:	4fa6      	ldr	r7, [pc, #664]	; (2c78 <_malloc_r+0x31c>)
    29de:	eb07 0181 	add.w	r1, r7, r1, lsl #2
    29e2:	68cc      	ldr	r4, [r1, #12]
    29e4:	42a1      	cmp	r1, r4
    29e6:	d106      	bne.n	29f6 <_malloc_r+0x9a>
    29e8:	e00c      	b.n	2a04 <_malloc_r+0xa8>
    29ea:	2a00      	cmp	r2, #0
    29ec:	f280 8082 	bge.w	2af4 <_malloc_r+0x198>
    29f0:	68e4      	ldr	r4, [r4, #12]
    29f2:	42a1      	cmp	r1, r4
    29f4:	d006      	beq.n	2a04 <_malloc_r+0xa8>
    29f6:	6863      	ldr	r3, [r4, #4]
    29f8:	f023 0303 	bic.w	r3, r3, #3
    29fc:	1b5a      	subs	r2, r3, r5
    29fe:	2a0f      	cmp	r2, #15
    2a00:	ddf3      	ble.n	29ea <_malloc_r+0x8e>
    2a02:	3801      	subs	r0, #1
    2a04:	3001      	adds	r0, #1
    2a06:	499c      	ldr	r1, [pc, #624]	; (2c78 <_malloc_r+0x31c>)
    2a08:	693c      	ldr	r4, [r7, #16]
    2a0a:	f101 0e08 	add.w	lr, r1, #8
    2a0e:	4574      	cmp	r4, lr
    2a10:	f000 8171 	beq.w	2cf6 <_malloc_r+0x39a>
    2a14:	6863      	ldr	r3, [r4, #4]
    2a16:	f023 0303 	bic.w	r3, r3, #3
    2a1a:	1b5a      	subs	r2, r3, r5
    2a1c:	2a0f      	cmp	r2, #15
    2a1e:	f300 8157 	bgt.w	2cd0 <_malloc_r+0x374>
    2a22:	2a00      	cmp	r2, #0
    2a24:	f8c1 e014 	str.w	lr, [r1, #20]
    2a28:	f8c1 e010 	str.w	lr, [r1, #16]
    2a2c:	da66      	bge.n	2afc <_malloc_r+0x1a0>
    2a2e:	f5b3 7f00 	cmp.w	r3, #512	; 0x200
    2a32:	f080 812d 	bcs.w	2c90 <_malloc_r+0x334>
    2a36:	08db      	lsrs	r3, r3, #3
    2a38:	eb01 08c3 	add.w	r8, r1, r3, lsl #3
    2a3c:	ea4f 0ca3 	mov.w	ip, r3, asr #2
    2a40:	684a      	ldr	r2, [r1, #4]
    2a42:	2301      	movs	r3, #1
    2a44:	fa03 f30c 	lsl.w	r3, r3, ip
    2a48:	f8d8 c008 	ldr.w	ip, [r8, #8]
    2a4c:	4313      	orrs	r3, r2
    2a4e:	f8c4 c008 	str.w	ip, [r4, #8]
    2a52:	f8c4 800c 	str.w	r8, [r4, #12]
    2a56:	604b      	str	r3, [r1, #4]
    2a58:	f8c8 4008 	str.w	r4, [r8, #8]
    2a5c:	f8cc 400c 	str.w	r4, [ip, #12]
    2a60:	1082      	asrs	r2, r0, #2
    2a62:	2401      	movs	r4, #1
    2a64:	4094      	lsls	r4, r2
    2a66:	429c      	cmp	r4, r3
    2a68:	d855      	bhi.n	2b16 <_malloc_r+0x1ba>
    2a6a:	4223      	tst	r3, r4
    2a6c:	d106      	bne.n	2a7c <_malloc_r+0x120>
    2a6e:	f020 0003 	bic.w	r0, r0, #3
    2a72:	0064      	lsls	r4, r4, #1
    2a74:	4223      	tst	r3, r4
    2a76:	f100 0004 	add.w	r0, r0, #4
    2a7a:	d0fa      	beq.n	2a72 <_malloc_r+0x116>
    2a7c:	eb07 08c0 	add.w	r8, r7, r0, lsl #3
    2a80:	46c4      	mov	ip, r8
    2a82:	4681      	mov	r9, r0
    2a84:	f8dc 300c 	ldr.w	r3, [ip, #12]
    2a88:	459c      	cmp	ip, r3
    2a8a:	d107      	bne.n	2a9c <_malloc_r+0x140>
    2a8c:	e135      	b.n	2cfa <_malloc_r+0x39e>
    2a8e:	2900      	cmp	r1, #0
    2a90:	f280 8145 	bge.w	2d1e <_malloc_r+0x3c2>
    2a94:	68db      	ldr	r3, [r3, #12]
    2a96:	459c      	cmp	ip, r3
    2a98:	f000 812f 	beq.w	2cfa <_malloc_r+0x39e>
    2a9c:	685a      	ldr	r2, [r3, #4]
    2a9e:	f022 0203 	bic.w	r2, r2, #3
    2aa2:	1b51      	subs	r1, r2, r5
    2aa4:	290f      	cmp	r1, #15
    2aa6:	ddf2      	ble.n	2a8e <_malloc_r+0x132>
    2aa8:	461c      	mov	r4, r3
    2aaa:	68da      	ldr	r2, [r3, #12]
    2aac:	f854 cf08 	ldr.w	ip, [r4, #8]!
    2ab0:	f045 0901 	orr.w	r9, r5, #1
    2ab4:	f041 0801 	orr.w	r8, r1, #1
    2ab8:	441d      	add	r5, r3
    2aba:	f8c3 9004 	str.w	r9, [r3, #4]
    2abe:	4630      	mov	r0, r6
    2ac0:	f8cc 200c 	str.w	r2, [ip, #12]
    2ac4:	f8c2 c008 	str.w	ip, [r2, #8]
    2ac8:	617d      	str	r5, [r7, #20]
    2aca:	613d      	str	r5, [r7, #16]
    2acc:	f8c5 e00c 	str.w	lr, [r5, #12]
    2ad0:	f8c5 e008 	str.w	lr, [r5, #8]
    2ad4:	f8c5 8004 	str.w	r8, [r5, #4]
    2ad8:	5069      	str	r1, [r5, r1]
    2ada:	f000 fad5 	bl	3088 <__malloc_unlock>
    2ade:	e769      	b.n	29b4 <_malloc_r+0x58>
    2ae0:	2400      	movs	r4, #0
    2ae2:	4620      	mov	r0, r4
    2ae4:	230c      	movs	r3, #12
    2ae6:	6033      	str	r3, [r6, #0]
    2ae8:	b003      	add	sp, #12
    2aea:	e8bd 8ff0 	ldmia.w	sp!, {r4, r5, r6, r7, r8, r9, sl, fp, pc}
    2aee:	217e      	movs	r1, #126	; 0x7e
    2af0:	203f      	movs	r0, #63	; 0x3f
    2af2:	e773      	b.n	29dc <_malloc_r+0x80>
    2af4:	4423      	add	r3, r4
    2af6:	685a      	ldr	r2, [r3, #4]
    2af8:	68e1      	ldr	r1, [r4, #12]
    2afa:	e751      	b.n	29a0 <_malloc_r+0x44>
    2afc:	4423      	add	r3, r4
    2afe:	685a      	ldr	r2, [r3, #4]
    2b00:	4630      	mov	r0, r6
    2b02:	f042 0201 	orr.w	r2, r2, #1
    2b06:	605a      	str	r2, [r3, #4]
    2b08:	3408      	adds	r4, #8
    2b0a:	f000 fabd 	bl	3088 <__malloc_unlock>
    2b0e:	4620      	mov	r0, r4
    2b10:	b003      	add	sp, #12
    2b12:	e8bd 8ff0 	ldmia.w	sp!, {r4, r5, r6, r7, r8, r9, sl, fp, pc}
    2b16:	68bc      	ldr	r4, [r7, #8]
    2b18:	6863      	ldr	r3, [r4, #4]
    2b1a:	f023 0803 	bic.w	r8, r3, #3
    2b1e:	4545      	cmp	r5, r8
    2b20:	d804      	bhi.n	2b2c <_malloc_r+0x1d0>
    2b22:	ebc5 0308 	rsb	r3, r5, r8
    2b26:	2b0f      	cmp	r3, #15
    2b28:	f300 808c 	bgt.w	2c44 <_malloc_r+0x2e8>
    2b2c:	4b53      	ldr	r3, [pc, #332]	; (2c7c <_malloc_r+0x320>)
    2b2e:	f8df a15c 	ldr.w	sl, [pc, #348]	; 2c8c <_malloc_r+0x330>
    2b32:	681a      	ldr	r2, [r3, #0]
    2b34:	f8da 3000 	ldr.w	r3, [sl]
    2b38:	442a      	add	r2, r5
    2b3a:	3301      	adds	r3, #1
    2b3c:	eb04 0b08 	add.w	fp, r4, r8
    2b40:	f000 8151 	beq.w	2de6 <_malloc_r+0x48a>
    2b44:	f502 5280 	add.w	r2, r2, #4096	; 0x1000
    2b48:	320f      	adds	r2, #15
    2b4a:	f422 627f 	bic.w	r2, r2, #4080	; 0xff0
    2b4e:	f022 020f 	bic.w	r2, r2, #15
    2b52:	4611      	mov	r1, r2
    2b54:	4630      	mov	r0, r6
    2b56:	9201      	str	r2, [sp, #4]
    2b58:	f000 faac 	bl	30b4 <_sbrk_r>
    2b5c:	f1b0 3fff 	cmp.w	r0, #4294967295
    2b60:	4681      	mov	r9, r0
    2b62:	9a01      	ldr	r2, [sp, #4]
    2b64:	f000 8148 	beq.w	2df8 <_malloc_r+0x49c>
    2b68:	4583      	cmp	fp, r0
    2b6a:	f200 80ef 	bhi.w	2d4c <_malloc_r+0x3f0>
    2b6e:	4b44      	ldr	r3, [pc, #272]	; (2c80 <_malloc_r+0x324>)
    2b70:	45cb      	cmp	fp, r9
    2b72:	6819      	ldr	r1, [r3, #0]
    2b74:	4411      	add	r1, r2
    2b76:	6019      	str	r1, [r3, #0]
    2b78:	f000 8143 	beq.w	2e02 <_malloc_r+0x4a6>
    2b7c:	f8da 0000 	ldr.w	r0, [sl]
    2b80:	f8df e108 	ldr.w	lr, [pc, #264]	; 2c8c <_malloc_r+0x330>
    2b84:	3001      	adds	r0, #1
    2b86:	bf1b      	ittet	ne
    2b88:	ebcb 0b09 	rsbne	fp, fp, r9
    2b8c:	4459      	addne	r1, fp
    2b8e:	f8ce 9000 	streq.w	r9, [lr]
    2b92:	6019      	strne	r1, [r3, #0]
    2b94:	f019 0107 	ands.w	r1, r9, #7
    2b98:	f000 8108 	beq.w	2dac <_malloc_r+0x450>
    2b9c:	f1c1 0008 	rsb	r0, r1, #8
    2ba0:	f5c1 5180 	rsb	r1, r1, #4096	; 0x1000
    2ba4:	4481      	add	r9, r0
    2ba6:	3108      	adds	r1, #8
    2ba8:	444a      	add	r2, r9
    2baa:	f3c2 020b 	ubfx	r2, r2, #0, #12
    2bae:	ebc2 0a01 	rsb	sl, r2, r1
    2bb2:	4651      	mov	r1, sl
    2bb4:	4630      	mov	r0, r6
    2bb6:	9301      	str	r3, [sp, #4]
    2bb8:	f000 fa7c 	bl	30b4 <_sbrk_r>
    2bbc:	1c43      	adds	r3, r0, #1
    2bbe:	9b01      	ldr	r3, [sp, #4]
    2bc0:	f000 812d 	beq.w	2e1e <_malloc_r+0x4c2>
    2bc4:	ebc9 0200 	rsb	r2, r9, r0
    2bc8:	4452      	add	r2, sl
    2bca:	f042 0201 	orr.w	r2, r2, #1
    2bce:	6819      	ldr	r1, [r3, #0]
    2bd0:	42bc      	cmp	r4, r7
    2bd2:	4451      	add	r1, sl
    2bd4:	f8c7 9008 	str.w	r9, [r7, #8]
    2bd8:	6019      	str	r1, [r3, #0]
    2bda:	f8c9 2004 	str.w	r2, [r9, #4]
    2bde:	f8df a0a0 	ldr.w	sl, [pc, #160]	; 2c80 <_malloc_r+0x324>
    2be2:	d016      	beq.n	2c12 <_malloc_r+0x2b6>
    2be4:	f1b8 0f0f 	cmp.w	r8, #15
    2be8:	f240 80ef 	bls.w	2dca <_malloc_r+0x46e>
    2bec:	6862      	ldr	r2, [r4, #4]
    2bee:	f1a8 030c 	sub.w	r3, r8, #12
    2bf2:	f023 0307 	bic.w	r3, r3, #7
    2bf6:	f002 0201 	and.w	r2, r2, #1
    2bfa:	18e0      	adds	r0, r4, r3
    2bfc:	f04f 0e05 	mov.w	lr, #5
    2c00:	431a      	orrs	r2, r3
    2c02:	2b0f      	cmp	r3, #15
    2c04:	6062      	str	r2, [r4, #4]
    2c06:	f8c0 e004 	str.w	lr, [r0, #4]
    2c0a:	f8c0 e008 	str.w	lr, [r0, #8]
    2c0e:	f200 810a 	bhi.w	2e26 <_malloc_r+0x4ca>
    2c12:	4b1c      	ldr	r3, [pc, #112]	; (2c84 <_malloc_r+0x328>)
    2c14:	68bc      	ldr	r4, [r7, #8]
    2c16:	681a      	ldr	r2, [r3, #0]
    2c18:	4291      	cmp	r1, r2
    2c1a:	bf88      	it	hi
    2c1c:	6019      	strhi	r1, [r3, #0]
    2c1e:	4b1a      	ldr	r3, [pc, #104]	; (2c88 <_malloc_r+0x32c>)
    2c20:	681a      	ldr	r2, [r3, #0]
    2c22:	4291      	cmp	r1, r2
    2c24:	6862      	ldr	r2, [r4, #4]
    2c26:	bf88      	it	hi
    2c28:	6019      	strhi	r1, [r3, #0]
    2c2a:	f022 0203 	bic.w	r2, r2, #3
    2c2e:	4295      	cmp	r5, r2
    2c30:	eba2 0305 	sub.w	r3, r2, r5
    2c34:	d801      	bhi.n	2c3a <_malloc_r+0x2de>
    2c36:	2b0f      	cmp	r3, #15
    2c38:	dc04      	bgt.n	2c44 <_malloc_r+0x2e8>
    2c3a:	4630      	mov	r0, r6
    2c3c:	f000 fa24 	bl	3088 <__malloc_unlock>
    2c40:	2400      	movs	r4, #0
    2c42:	e6b7      	b.n	29b4 <_malloc_r+0x58>
    2c44:	f045 0201 	orr.w	r2, r5, #1
    2c48:	f043 0301 	orr.w	r3, r3, #1
    2c4c:	4425      	add	r5, r4
    2c4e:	6062      	str	r2, [r4, #4]
    2c50:	4630      	mov	r0, r6
    2c52:	60bd      	str	r5, [r7, #8]
    2c54:	3408      	adds	r4, #8
    2c56:	606b      	str	r3, [r5, #4]
    2c58:	f000 fa16 	bl	3088 <__malloc_unlock>
    2c5c:	4620      	mov	r0, r4
    2c5e:	b003      	add	sp, #12
    2c60:	e8bd 8ff0 	ldmia.w	sp!, {r4, r5, r6, r7, r8, r9, sl, fp, pc}
    2c64:	2814      	cmp	r0, #20
    2c66:	d969      	bls.n	2d3c <_malloc_r+0x3e0>
    2c68:	2854      	cmp	r0, #84	; 0x54
    2c6a:	f200 8098 	bhi.w	2d9e <_malloc_r+0x442>
    2c6e:	0b28      	lsrs	r0, r5, #12
    2c70:	306e      	adds	r0, #110	; 0x6e
    2c72:	0041      	lsls	r1, r0, #1
    2c74:	e6b2      	b.n	29dc <_malloc_r+0x80>
    2c76:	bf00      	nop
    2c78:	1000050c 	andne	r0, r0, ip, lsl #10
    2c7c:	100013e4 	andne	r1, r0, r4, ror #7
    2c80:	100013e8 	andne	r1, r0, r8, ror #7
    2c84:	100013e0 	andne	r1, r0, r0, ror #7
    2c88:	100013dc 	ldrdne	r1, [r0], -ip
    2c8c:	10000918 	andne	r0, r0, r8, lsl r9
    2c90:	0a5a      	lsrs	r2, r3, #9
    2c92:	2a04      	cmp	r2, #4
    2c94:	d955      	bls.n	2d42 <_malloc_r+0x3e6>
    2c96:	2a14      	cmp	r2, #20
    2c98:	f200 80a7 	bhi.w	2dea <_malloc_r+0x48e>
    2c9c:	325b      	adds	r2, #91	; 0x5b
    2c9e:	ea4f 0c42 	mov.w	ip, r2, lsl #1
    2ca2:	eb07 0c8c 	add.w	ip, r7, ip, lsl #2
    2ca6:	f8dc 1008 	ldr.w	r1, [ip, #8]
    2caa:	f8df 81b8 	ldr.w	r8, [pc, #440]	; 2e64 <_malloc_r+0x508>
    2cae:	4561      	cmp	r1, ip
    2cb0:	d07f      	beq.n	2db2 <_malloc_r+0x456>
    2cb2:	684a      	ldr	r2, [r1, #4]
    2cb4:	f022 0203 	bic.w	r2, r2, #3
    2cb8:	4293      	cmp	r3, r2
    2cba:	d202      	bcs.n	2cc2 <_malloc_r+0x366>
    2cbc:	6889      	ldr	r1, [r1, #8]
    2cbe:	458c      	cmp	ip, r1
    2cc0:	d1f7      	bne.n	2cb2 <_malloc_r+0x356>
    2cc2:	68ca      	ldr	r2, [r1, #12]
    2cc4:	687b      	ldr	r3, [r7, #4]
    2cc6:	60e2      	str	r2, [r4, #12]
    2cc8:	60a1      	str	r1, [r4, #8]
    2cca:	6094      	str	r4, [r2, #8]
    2ccc:	60cc      	str	r4, [r1, #12]
    2cce:	e6c7      	b.n	2a60 <_malloc_r+0x104>
    2cd0:	f045 0701 	orr.w	r7, r5, #1
    2cd4:	f042 0301 	orr.w	r3, r2, #1
    2cd8:	4425      	add	r5, r4
    2cda:	6067      	str	r7, [r4, #4]
    2cdc:	4630      	mov	r0, r6
    2cde:	614d      	str	r5, [r1, #20]
    2ce0:	610d      	str	r5, [r1, #16]
    2ce2:	f8c5 e00c 	str.w	lr, [r5, #12]
    2ce6:	f8c5 e008 	str.w	lr, [r5, #8]
    2cea:	606b      	str	r3, [r5, #4]
    2cec:	50aa      	str	r2, [r5, r2]
    2cee:	3408      	adds	r4, #8
    2cf0:	f000 f9ca 	bl	3088 <__malloc_unlock>
    2cf4:	e65e      	b.n	29b4 <_malloc_r+0x58>
    2cf6:	684b      	ldr	r3, [r1, #4]
    2cf8:	e6b2      	b.n	2a60 <_malloc_r+0x104>
    2cfa:	f109 0901 	add.w	r9, r9, #1
    2cfe:	f019 0f03 	tst.w	r9, #3
    2d02:	f10c 0c08 	add.w	ip, ip, #8
    2d06:	f47f aebd 	bne.w	2a84 <_malloc_r+0x128>
    2d0a:	e02c      	b.n	2d66 <_malloc_r+0x40a>
    2d0c:	f104 0308 	add.w	r3, r4, #8
    2d10:	6964      	ldr	r4, [r4, #20]
    2d12:	42a3      	cmp	r3, r4
    2d14:	bf08      	it	eq
    2d16:	3002      	addeq	r0, #2
    2d18:	f43f ae75 	beq.w	2a06 <_malloc_r+0xaa>
    2d1c:	e63a      	b.n	2994 <_malloc_r+0x38>
    2d1e:	461c      	mov	r4, r3
    2d20:	441a      	add	r2, r3
    2d22:	6851      	ldr	r1, [r2, #4]
    2d24:	68db      	ldr	r3, [r3, #12]
    2d26:	f854 5f08 	ldr.w	r5, [r4, #8]!
    2d2a:	f041 0101 	orr.w	r1, r1, #1
    2d2e:	6051      	str	r1, [r2, #4]
    2d30:	4630      	mov	r0, r6
    2d32:	60eb      	str	r3, [r5, #12]
    2d34:	609d      	str	r5, [r3, #8]
    2d36:	f000 f9a7 	bl	3088 <__malloc_unlock>
    2d3a:	e63b      	b.n	29b4 <_malloc_r+0x58>
    2d3c:	305b      	adds	r0, #91	; 0x5b
    2d3e:	0041      	lsls	r1, r0, #1
    2d40:	e64c      	b.n	29dc <_malloc_r+0x80>
    2d42:	099a      	lsrs	r2, r3, #6
    2d44:	3238      	adds	r2, #56	; 0x38
    2d46:	ea4f 0c42 	mov.w	ip, r2, lsl #1
    2d4a:	e7aa      	b.n	2ca2 <_malloc_r+0x346>
    2d4c:	42bc      	cmp	r4, r7
    2d4e:	4b45      	ldr	r3, [pc, #276]	; (2e64 <_malloc_r+0x508>)
    2d50:	f43f af0d 	beq.w	2b6e <_malloc_r+0x212>
    2d54:	689c      	ldr	r4, [r3, #8]
    2d56:	6862      	ldr	r2, [r4, #4]
    2d58:	f022 0203 	bic.w	r2, r2, #3
    2d5c:	e767      	b.n	2c2e <_malloc_r+0x2d2>
    2d5e:	f8d8 8000 	ldr.w	r8, [r8]
    2d62:	4598      	cmp	r8, r3
    2d64:	d17c      	bne.n	2e60 <_malloc_r+0x504>
    2d66:	f010 0f03 	tst.w	r0, #3
    2d6a:	f1a8 0308 	sub.w	r3, r8, #8
    2d6e:	f100 30ff 	add.w	r0, r0, #4294967295
    2d72:	d1f4      	bne.n	2d5e <_malloc_r+0x402>
    2d74:	687b      	ldr	r3, [r7, #4]
    2d76:	ea23 0304 	bic.w	r3, r3, r4
    2d7a:	607b      	str	r3, [r7, #4]
    2d7c:	0064      	lsls	r4, r4, #1
    2d7e:	429c      	cmp	r4, r3
    2d80:	f63f aec9 	bhi.w	2b16 <_malloc_r+0x1ba>
    2d84:	2c00      	cmp	r4, #0
    2d86:	f43f aec6 	beq.w	2b16 <_malloc_r+0x1ba>
    2d8a:	4223      	tst	r3, r4
    2d8c:	4648      	mov	r0, r9
    2d8e:	f47f ae75 	bne.w	2a7c <_malloc_r+0x120>
    2d92:	0064      	lsls	r4, r4, #1
    2d94:	4223      	tst	r3, r4
    2d96:	f100 0004 	add.w	r0, r0, #4
    2d9a:	d0fa      	beq.n	2d92 <_malloc_r+0x436>
    2d9c:	e66e      	b.n	2a7c <_malloc_r+0x120>
    2d9e:	f5b0 7faa 	cmp.w	r0, #340	; 0x154
    2da2:	d818      	bhi.n	2dd6 <_malloc_r+0x47a>
    2da4:	0be8      	lsrs	r0, r5, #15
    2da6:	3077      	adds	r0, #119	; 0x77
    2da8:	0041      	lsls	r1, r0, #1
    2daa:	e617      	b.n	29dc <_malloc_r+0x80>
    2dac:	f44f 5180 	mov.w	r1, #4096	; 0x1000
    2db0:	e6fa      	b.n	2ba8 <_malloc_r+0x24c>
    2db2:	f8d8 3004 	ldr.w	r3, [r8, #4]
    2db6:	1092      	asrs	r2, r2, #2
    2db8:	f04f 0c01 	mov.w	ip, #1
    2dbc:	fa0c f202 	lsl.w	r2, ip, r2
    2dc0:	4313      	orrs	r3, r2
    2dc2:	f8c8 3004 	str.w	r3, [r8, #4]
    2dc6:	460a      	mov	r2, r1
    2dc8:	e77d      	b.n	2cc6 <_malloc_r+0x36a>
    2dca:	2301      	movs	r3, #1
    2dcc:	f8c9 3004 	str.w	r3, [r9, #4]
    2dd0:	464c      	mov	r4, r9
    2dd2:	2200      	movs	r2, #0
    2dd4:	e72b      	b.n	2c2e <_malloc_r+0x2d2>
    2dd6:	f240 5354 	movw	r3, #1364	; 0x554
    2dda:	4298      	cmp	r0, r3
    2ddc:	d81c      	bhi.n	2e18 <_malloc_r+0x4bc>
    2dde:	0ca8      	lsrs	r0, r5, #18
    2de0:	307c      	adds	r0, #124	; 0x7c
    2de2:	0041      	lsls	r1, r0, #1
    2de4:	e5fa      	b.n	29dc <_malloc_r+0x80>
    2de6:	3210      	adds	r2, #16
    2de8:	e6b3      	b.n	2b52 <_malloc_r+0x1f6>
    2dea:	2a54      	cmp	r2, #84	; 0x54
    2dec:	d823      	bhi.n	2e36 <_malloc_r+0x4da>
    2dee:	0b1a      	lsrs	r2, r3, #12
    2df0:	326e      	adds	r2, #110	; 0x6e
    2df2:	ea4f 0c42 	mov.w	ip, r2, lsl #1
    2df6:	e754      	b.n	2ca2 <_malloc_r+0x346>
    2df8:	68bc      	ldr	r4, [r7, #8]
    2dfa:	6862      	ldr	r2, [r4, #4]
    2dfc:	f022 0203 	bic.w	r2, r2, #3
    2e00:	e715      	b.n	2c2e <_malloc_r+0x2d2>
    2e02:	f3cb 000b 	ubfx	r0, fp, #0, #12
    2e06:	2800      	cmp	r0, #0
    2e08:	f47f aeb8 	bne.w	2b7c <_malloc_r+0x220>
    2e0c:	4442      	add	r2, r8
    2e0e:	68bb      	ldr	r3, [r7, #8]
    2e10:	f042 0201 	orr.w	r2, r2, #1
    2e14:	605a      	str	r2, [r3, #4]
    2e16:	e6fc      	b.n	2c12 <_malloc_r+0x2b6>
    2e18:	21fc      	movs	r1, #252	; 0xfc
    2e1a:	207e      	movs	r0, #126	; 0x7e
    2e1c:	e5de      	b.n	29dc <_malloc_r+0x80>
    2e1e:	2201      	movs	r2, #1
    2e20:	f04f 0a00 	mov.w	sl, #0
    2e24:	e6d3      	b.n	2bce <_malloc_r+0x272>
    2e26:	f104 0108 	add.w	r1, r4, #8
    2e2a:	4630      	mov	r0, r6
    2e2c:	f7ff fc5e 	bl	26ec <_free_r>
    2e30:	f8da 1000 	ldr.w	r1, [sl]
    2e34:	e6ed      	b.n	2c12 <_malloc_r+0x2b6>
    2e36:	f5b2 7faa 	cmp.w	r2, #340	; 0x154
    2e3a:	d804      	bhi.n	2e46 <_malloc_r+0x4ea>
    2e3c:	0bda      	lsrs	r2, r3, #15
    2e3e:	3277      	adds	r2, #119	; 0x77
    2e40:	ea4f 0c42 	mov.w	ip, r2, lsl #1
    2e44:	e72d      	b.n	2ca2 <_malloc_r+0x346>
    2e46:	f240 5154 	movw	r1, #1364	; 0x554
    2e4a:	428a      	cmp	r2, r1
    2e4c:	d804      	bhi.n	2e58 <_malloc_r+0x4fc>
    2e4e:	0c9a      	lsrs	r2, r3, #18
    2e50:	327c      	adds	r2, #124	; 0x7c
    2e52:	ea4f 0c42 	mov.w	ip, r2, lsl #1
    2e56:	e724      	b.n	2ca2 <_malloc_r+0x346>
    2e58:	f04f 0cfc 	mov.w	ip, #252	; 0xfc
    2e5c:	227e      	movs	r2, #126	; 0x7e
    2e5e:	e720      	b.n	2ca2 <_malloc_r+0x346>
    2e60:	687b      	ldr	r3, [r7, #4]
    2e62:	e78b      	b.n	2d7c <_malloc_r+0x420>
    2e64:	1000050c 	andne	r0, r0, ip, lsl #10

00002e68 <memchr>:
    2e68:	0783      	lsls	r3, r0, #30
    2e6a:	b470      	push	{r4, r5, r6}
    2e6c:	b2c9      	uxtb	r1, r1
    2e6e:	d040      	beq.n	2ef2 <memchr+0x8a>
    2e70:	1e54      	subs	r4, r2, #1
    2e72:	2a00      	cmp	r2, #0
    2e74:	d03f      	beq.n	2ef6 <memchr+0x8e>
    2e76:	7803      	ldrb	r3, [r0, #0]
    2e78:	428b      	cmp	r3, r1
    2e7a:	bf18      	it	ne
    2e7c:	1c43      	addne	r3, r0, #1
    2e7e:	d105      	bne.n	2e8c <memchr+0x24>
    2e80:	e01c      	b.n	2ebc <memchr+0x54>
    2e82:	b1ec      	cbz	r4, 2ec0 <memchr+0x58>
    2e84:	7802      	ldrb	r2, [r0, #0]
    2e86:	3c01      	subs	r4, #1
    2e88:	428a      	cmp	r2, r1
    2e8a:	d017      	beq.n	2ebc <memchr+0x54>
    2e8c:	f013 0f03 	tst.w	r3, #3
    2e90:	4618      	mov	r0, r3
    2e92:	f103 0301 	add.w	r3, r3, #1
    2e96:	d1f4      	bne.n	2e82 <memchr+0x1a>
    2e98:	2c03      	cmp	r4, #3
    2e9a:	d814      	bhi.n	2ec6 <memchr+0x5e>
    2e9c:	b184      	cbz	r4, 2ec0 <memchr+0x58>
    2e9e:	7803      	ldrb	r3, [r0, #0]
    2ea0:	428b      	cmp	r3, r1
    2ea2:	d00b      	beq.n	2ebc <memchr+0x54>
    2ea4:	1905      	adds	r5, r0, r4
    2ea6:	1c43      	adds	r3, r0, #1
    2ea8:	e002      	b.n	2eb0 <memchr+0x48>
    2eaa:	7802      	ldrb	r2, [r0, #0]
    2eac:	428a      	cmp	r2, r1
    2eae:	d005      	beq.n	2ebc <memchr+0x54>
    2eb0:	42ab      	cmp	r3, r5
    2eb2:	4618      	mov	r0, r3
    2eb4:	f103 0301 	add.w	r3, r3, #1
    2eb8:	d1f7      	bne.n	2eaa <memchr+0x42>
    2eba:	2000      	movs	r0, #0
    2ebc:	bc70      	pop	{r4, r5, r6}
    2ebe:	4770      	bx	lr
    2ec0:	4620      	mov	r0, r4
    2ec2:	bc70      	pop	{r4, r5, r6}
    2ec4:	4770      	bx	lr
    2ec6:	4602      	mov	r2, r0
    2ec8:	ea41 2601 	orr.w	r6, r1, r1, lsl #8
    2ecc:	ea46 4606 	orr.w	r6, r6, r6, lsl #16
    2ed0:	6813      	ldr	r3, [r2, #0]
    2ed2:	4610      	mov	r0, r2
    2ed4:	4073      	eors	r3, r6
    2ed6:	f1a3 3501 	sub.w	r5, r3, #16843009	; 0x1010101
    2eda:	ea25 0303 	bic.w	r3, r5, r3
    2ede:	f013 3f80 	tst.w	r3, #2155905152	; 0x80808080
    2ee2:	f102 0204 	add.w	r2, r2, #4
    2ee6:	d1d9      	bne.n	2e9c <memchr+0x34>
    2ee8:	3c04      	subs	r4, #4
    2eea:	2c03      	cmp	r4, #3
    2eec:	4610      	mov	r0, r2
    2eee:	d8ef      	bhi.n	2ed0 <memchr+0x68>
    2ef0:	e7d4      	b.n	2e9c <memchr+0x34>
    2ef2:	4614      	mov	r4, r2
    2ef4:	e7d0      	b.n	2e98 <memchr+0x30>
    2ef6:	4610      	mov	r0, r2
    2ef8:	e7e0      	b.n	2ebc <memchr+0x54>
    2efa:	bf00      	nop

00002efc <memcpy>:
    2efc:	4684      	mov	ip, r0
    2efe:	ea41 0300 	orr.w	r3, r1, r0
    2f02:	f013 0303 	ands.w	r3, r3, #3
    2f06:	d149      	bne.n	2f9c <memcpy+0xa0>
    2f08:	3a40      	subs	r2, #64	; 0x40
    2f0a:	d323      	bcc.n	2f54 <memcpy+0x58>
    2f0c:	680b      	ldr	r3, [r1, #0]
    2f0e:	6003      	str	r3, [r0, #0]
    2f10:	684b      	ldr	r3, [r1, #4]
    2f12:	6043      	str	r3, [r0, #4]
    2f14:	688b      	ldr	r3, [r1, #8]
    2f16:	6083      	str	r3, [r0, #8]
    2f18:	68cb      	ldr	r3, [r1, #12]
    2f1a:	60c3      	str	r3, [r0, #12]
    2f1c:	690b      	ldr	r3, [r1, #16]
    2f1e:	6103      	str	r3, [r0, #16]
    2f20:	694b      	ldr	r3, [r1, #20]
    2f22:	6143      	str	r3, [r0, #20]
    2f24:	698b      	ldr	r3, [r1, #24]
    2f26:	6183      	str	r3, [r0, #24]
    2f28:	69cb      	ldr	r3, [r1, #28]
    2f2a:	61c3      	str	r3, [r0, #28]
    2f2c:	6a0b      	ldr	r3, [r1, #32]
    2f2e:	6203      	str	r3, [r0, #32]
    2f30:	6a4b      	ldr	r3, [r1, #36]	; 0x24
    2f32:	6243      	str	r3, [r0, #36]	; 0x24
    2f34:	6a8b      	ldr	r3, [r1, #40]	; 0x28
    2f36:	6283      	str	r3, [r0, #40]	; 0x28
    2f38:	6acb      	ldr	r3, [r1, #44]	; 0x2c
    2f3a:	62c3      	str	r3, [r0, #44]	; 0x2c
    2f3c:	6b0b      	ldr	r3, [r1, #48]	; 0x30
    2f3e:	6303      	str	r3, [r0, #48]	; 0x30
    2f40:	6b4b      	ldr	r3, [r1, #52]	; 0x34
    2f42:	6343      	str	r3, [r0, #52]	; 0x34
    2f44:	6b8b      	ldr	r3, [r1, #56]	; 0x38
    2f46:	6383      	str	r3, [r0, #56]	; 0x38
    2f48:	6bcb      	ldr	r3, [r1, #60]	; 0x3c
    2f4a:	63c3      	str	r3, [r0, #60]	; 0x3c
    2f4c:	3040      	adds	r0, #64	; 0x40
    2f4e:	3140      	adds	r1, #64	; 0x40
    2f50:	3a40      	subs	r2, #64	; 0x40
    2f52:	d2db      	bcs.n	2f0c <memcpy+0x10>
    2f54:	3230      	adds	r2, #48	; 0x30
    2f56:	d30b      	bcc.n	2f70 <memcpy+0x74>
    2f58:	680b      	ldr	r3, [r1, #0]
    2f5a:	6003      	str	r3, [r0, #0]
    2f5c:	684b      	ldr	r3, [r1, #4]
    2f5e:	6043      	str	r3, [r0, #4]
    2f60:	688b      	ldr	r3, [r1, #8]
    2f62:	6083      	str	r3, [r0, #8]
    2f64:	68cb      	ldr	r3, [r1, #12]
    2f66:	60c3      	str	r3, [r0, #12]
    2f68:	3010      	adds	r0, #16
    2f6a:	3110      	adds	r1, #16
    2f6c:	3a10      	subs	r2, #16
    2f6e:	d2f3      	bcs.n	2f58 <memcpy+0x5c>
    2f70:	320c      	adds	r2, #12
    2f72:	d305      	bcc.n	2f80 <memcpy+0x84>
    2f74:	f851 3b04 	ldr.w	r3, [r1], #4
    2f78:	f840 3b04 	str.w	r3, [r0], #4
    2f7c:	3a04      	subs	r2, #4
    2f7e:	d2f9      	bcs.n	2f74 <memcpy+0x78>
    2f80:	3204      	adds	r2, #4
    2f82:	d008      	beq.n	2f96 <memcpy+0x9a>
    2f84:	07d2      	lsls	r2, r2, #31
    2f86:	bf1c      	itt	ne
    2f88:	f811 3b01 	ldrbne.w	r3, [r1], #1
    2f8c:	f800 3b01 	strbne.w	r3, [r0], #1
    2f90:	d301      	bcc.n	2f96 <memcpy+0x9a>
    2f92:	880b      	ldrh	r3, [r1, #0]
    2f94:	8003      	strh	r3, [r0, #0]
    2f96:	4660      	mov	r0, ip
    2f98:	4770      	bx	lr
    2f9a:	bf00      	nop
    2f9c:	2a08      	cmp	r2, #8
    2f9e:	d313      	bcc.n	2fc8 <memcpy+0xcc>
    2fa0:	078b      	lsls	r3, r1, #30
    2fa2:	d0b1      	beq.n	2f08 <memcpy+0xc>
    2fa4:	f010 0303 	ands.w	r3, r0, #3
    2fa8:	d0ae      	beq.n	2f08 <memcpy+0xc>
    2faa:	f1c3 0304 	rsb	r3, r3, #4
    2fae:	1ad2      	subs	r2, r2, r3
    2fb0:	07db      	lsls	r3, r3, #31
    2fb2:	bf1c      	itt	ne
    2fb4:	f811 3b01 	ldrbne.w	r3, [r1], #1
    2fb8:	f800 3b01 	strbne.w	r3, [r0], #1
    2fbc:	d3a4      	bcc.n	2f08 <memcpy+0xc>
    2fbe:	f831 3b02 	ldrh.w	r3, [r1], #2
    2fc2:	f820 3b02 	strh.w	r3, [r0], #2
    2fc6:	e79f      	b.n	2f08 <memcpy+0xc>
    2fc8:	3a04      	subs	r2, #4
    2fca:	d3d9      	bcc.n	2f80 <memcpy+0x84>
    2fcc:	3a01      	subs	r2, #1
    2fce:	f811 3b01 	ldrb.w	r3, [r1], #1
    2fd2:	f800 3b01 	strb.w	r3, [r0], #1
    2fd6:	d2f9      	bcs.n	2fcc <memcpy+0xd0>
    2fd8:	780b      	ldrb	r3, [r1, #0]
    2fda:	7003      	strb	r3, [r0, #0]
    2fdc:	784b      	ldrb	r3, [r1, #1]
    2fde:	7043      	strb	r3, [r0, #1]
    2fe0:	788b      	ldrb	r3, [r1, #2]
    2fe2:	7083      	strb	r3, [r0, #2]
    2fe4:	4660      	mov	r0, ip
    2fe6:	4770      	bx	lr

00002fe8 <memset>:
    2fe8:	b470      	push	{r4, r5, r6}
    2fea:	0784      	lsls	r4, r0, #30
    2fec:	d046      	beq.n	307c <memset+0x94>
    2fee:	1e54      	subs	r4, r2, #1
    2ff0:	2a00      	cmp	r2, #0
    2ff2:	d041      	beq.n	3078 <memset+0x90>
    2ff4:	b2cd      	uxtb	r5, r1
    2ff6:	4603      	mov	r3, r0
    2ff8:	e002      	b.n	3000 <memset+0x18>
    2ffa:	1e62      	subs	r2, r4, #1
    2ffc:	b3e4      	cbz	r4, 3078 <memset+0x90>
    2ffe:	4614      	mov	r4, r2
    3000:	f803 5b01 	strb.w	r5, [r3], #1
    3004:	079a      	lsls	r2, r3, #30
    3006:	d1f8      	bne.n	2ffa <memset+0x12>
    3008:	2c03      	cmp	r4, #3
    300a:	d92e      	bls.n	306a <memset+0x82>
    300c:	b2cd      	uxtb	r5, r1
    300e:	ea45 2505 	orr.w	r5, r5, r5, lsl #8
    3012:	2c0f      	cmp	r4, #15
    3014:	ea45 4505 	orr.w	r5, r5, r5, lsl #16
    3018:	d919      	bls.n	304e <memset+0x66>
    301a:	4626      	mov	r6, r4
    301c:	f103 0210 	add.w	r2, r3, #16
    3020:	3e10      	subs	r6, #16
    3022:	2e0f      	cmp	r6, #15
    3024:	f842 5c10 	str.w	r5, [r2, #-16]
    3028:	f842 5c0c 	str.w	r5, [r2, #-12]
    302c:	f842 5c08 	str.w	r5, [r2, #-8]
    3030:	f842 5c04 	str.w	r5, [r2, #-4]
    3034:	f102 0210 	add.w	r2, r2, #16
    3038:	d8f2      	bhi.n	3020 <memset+0x38>
    303a:	f1a4 0210 	sub.w	r2, r4, #16
    303e:	f022 020f 	bic.w	r2, r2, #15
    3042:	f004 040f 	and.w	r4, r4, #15
    3046:	3210      	adds	r2, #16
    3048:	2c03      	cmp	r4, #3
    304a:	4413      	add	r3, r2
    304c:	d90d      	bls.n	306a <memset+0x82>
    304e:	461e      	mov	r6, r3
    3050:	4622      	mov	r2, r4
    3052:	3a04      	subs	r2, #4
    3054:	2a03      	cmp	r2, #3
    3056:	f846 5b04 	str.w	r5, [r6], #4
    305a:	d8fa      	bhi.n	3052 <memset+0x6a>
    305c:	1f22      	subs	r2, r4, #4
    305e:	f022 0203 	bic.w	r2, r2, #3
    3062:	3204      	adds	r2, #4
    3064:	4413      	add	r3, r2
    3066:	f004 0403 	and.w	r4, r4, #3
    306a:	b12c      	cbz	r4, 3078 <memset+0x90>
    306c:	b2c9      	uxtb	r1, r1
    306e:	441c      	add	r4, r3
    3070:	f803 1b01 	strb.w	r1, [r3], #1
    3074:	42a3      	cmp	r3, r4
    3076:	d1fb      	bne.n	3070 <memset+0x88>
    3078:	bc70      	pop	{r4, r5, r6}
    307a:	4770      	bx	lr
    307c:	4614      	mov	r4, r2
    307e:	4603      	mov	r3, r0
    3080:	e7c2      	b.n	3008 <memset+0x20>
    3082:	bf00      	nop

00003084 <__malloc_lock>:
    3084:	4770      	bx	lr
    3086:	bf00      	nop

00003088 <__malloc_unlock>:
    3088:	4770      	bx	lr
    308a:	bf00      	nop

0000308c <printf>:
    308c:	b40f      	push	{r0, r1, r2, r3}
    308e:	b510      	push	{r4, lr}
    3090:	4b07      	ldr	r3, [pc, #28]	; (30b0 <printf+0x24>)
    3092:	b082      	sub	sp, #8
    3094:	ac04      	add	r4, sp, #16
    3096:	f854 2b04 	ldr.w	r2, [r4], #4
    309a:	6818      	ldr	r0, [r3, #0]
    309c:	4623      	mov	r3, r4
    309e:	6881      	ldr	r1, [r0, #8]
    30a0:	9401      	str	r4, [sp, #4]
    30a2:	f000 f9b1 	bl	3408 <_vfprintf_r>
    30a6:	b002      	add	sp, #8
    30a8:	e8bd 4010 	ldmia.w	sp!, {r4, lr}
    30ac:	b004      	add	sp, #16
    30ae:	4770      	bx	lr
    30b0:	10000508 	andne	r0, r0, r8, lsl #10

000030b4 <_sbrk_r>:
    30b4:	b538      	push	{r3, r4, r5, lr}
    30b6:	4c07      	ldr	r4, [pc, #28]	; (30d4 <_sbrk_r+0x20>)
    30b8:	2300      	movs	r3, #0
    30ba:	4605      	mov	r5, r0
    30bc:	4608      	mov	r0, r1
    30be:	6023      	str	r3, [r4, #0]
    30c0:	f7fd fa98 	bl	5f4 <_sbrk>
    30c4:	1c43      	adds	r3, r0, #1
    30c6:	d000      	beq.n	30ca <_sbrk_r+0x16>
    30c8:	bd38      	pop	{r3, r4, r5, pc}
    30ca:	6823      	ldr	r3, [r4, #0]
    30cc:	2b00      	cmp	r3, #0
    30ce:	d0fb      	beq.n	30c8 <_sbrk_r+0x14>
    30d0:	602b      	str	r3, [r5, #0]
    30d2:	bd38      	pop	{r3, r4, r5, pc}
    30d4:	10001418 	andne	r1, r0, r8, lsl r4

000030d8 <_raise_r>:
    30d8:	291f      	cmp	r1, #31
    30da:	b538      	push	{r3, r4, r5, lr}
    30dc:	d822      	bhi.n	3124 <_raise_r+0x4c>
    30de:	f8d0 22dc 	ldr.w	r2, [r0, #732]	; 0x2dc
    30e2:	4605      	mov	r5, r0
    30e4:	460c      	mov	r4, r1
    30e6:	b19a      	cbz	r2, 3110 <_raise_r+0x38>
    30e8:	f852 3021 	ldr.w	r3, [r2, r1, lsl #2]
    30ec:	b183      	cbz	r3, 3110 <_raise_r+0x38>
    30ee:	2b01      	cmp	r3, #1
    30f0:	d00c      	beq.n	310c <_raise_r+0x34>
    30f2:	1c59      	adds	r1, r3, #1
    30f4:	d006      	beq.n	3104 <_raise_r+0x2c>
    30f6:	2500      	movs	r5, #0
    30f8:	4620      	mov	r0, r4
    30fa:	f842 5024 	str.w	r5, [r2, r4, lsl #2]
    30fe:	4798      	blx	r3
    3100:	4628      	mov	r0, r5
    3102:	bd38      	pop	{r3, r4, r5, pc}
    3104:	2316      	movs	r3, #22
    3106:	6003      	str	r3, [r0, #0]
    3108:	2001      	movs	r0, #1
    310a:	bd38      	pop	{r3, r4, r5, pc}
    310c:	2000      	movs	r0, #0
    310e:	bd38      	pop	{r3, r4, r5, pc}
    3110:	4628      	mov	r0, r5
    3112:	f000 f829 	bl	3168 <_getpid_r>
    3116:	4622      	mov	r2, r4
    3118:	4601      	mov	r1, r0
    311a:	4628      	mov	r0, r5
    311c:	e8bd 4038 	ldmia.w	sp!, {r3, r4, r5, lr}
    3120:	f000 b80e 	b.w	3140 <_kill_r>
    3124:	2316      	movs	r3, #22
    3126:	6003      	str	r3, [r0, #0]
    3128:	f04f 30ff 	mov.w	r0, #4294967295
    312c:	bd38      	pop	{r3, r4, r5, pc}
    312e:	bf00      	nop

00003130 <raise>:
    3130:	4b02      	ldr	r3, [pc, #8]	; (313c <raise+0xc>)
    3132:	4601      	mov	r1, r0
    3134:	6818      	ldr	r0, [r3, #0]
    3136:	f7ff bfcf 	b.w	30d8 <_raise_r>
    313a:	bf00      	nop
    313c:	10000508 	andne	r0, r0, r8, lsl #10

00003140 <_kill_r>:
    3140:	b538      	push	{r3, r4, r5, lr}
    3142:	4c08      	ldr	r4, [pc, #32]	; (3164 <_kill_r+0x24>)
    3144:	2300      	movs	r3, #0
    3146:	4605      	mov	r5, r0
    3148:	4608      	mov	r0, r1
    314a:	4611      	mov	r1, r2
    314c:	6023      	str	r3, [r4, #0]
    314e:	f005 ff35 	bl	8fbc <_kill>
    3152:	1c43      	adds	r3, r0, #1
    3154:	d000      	beq.n	3158 <_kill_r+0x18>
    3156:	bd38      	pop	{r3, r4, r5, pc}
    3158:	6823      	ldr	r3, [r4, #0]
    315a:	2b00      	cmp	r3, #0
    315c:	d0fb      	beq.n	3156 <_kill_r+0x16>
    315e:	602b      	str	r3, [r5, #0]
    3160:	bd38      	pop	{r3, r4, r5, pc}
    3162:	bf00      	nop
    3164:	10001418 	andne	r1, r0, r8, lsl r4

00003168 <_getpid_r>:
    3168:	f005 bf20 	b.w	8fac <_getpid>

0000316c <__sread>:
    316c:	b510      	push	{r4, lr}
    316e:	460c      	mov	r4, r1
    3170:	f9b1 100e 	ldrsh.w	r1, [r1, #14]
    3174:	f003 f88a 	bl	628c <_read_r>
    3178:	2800      	cmp	r0, #0
    317a:	db03      	blt.n	3184 <__sread+0x18>
    317c:	6d23      	ldr	r3, [r4, #80]	; 0x50
    317e:	4403      	add	r3, r0
    3180:	6523      	str	r3, [r4, #80]	; 0x50
    3182:	bd10      	pop	{r4, pc}
    3184:	89a3      	ldrh	r3, [r4, #12]
    3186:	f423 5380 	bic.w	r3, r3, #4096	; 0x1000
