
simple.o:     file format elf32-littlearm
simple.o
architecture: arm, flags 0x00000011:
HAS_RELOC, HAS_SYMS
start address 0x00000000
private flags = 5000000: [Version5 EABI]

Sections:
Idx Name          Size      VMA       LMA       File off  Algn
  0 .text         0000003c  00000000  00000000  00000034  2**2
                  CONTENTS, ALLOC, LOAD, RELOC, READONLY, CODE
  1 .ARM.exidx    00000018  00000000  00000000  00000070  2**2
                  CONTENTS, ALLOC, LOAD, RELOC, READONLY, DATA
  2 .group        00000008  00000000  00000000  00000128  2**2
                  CONTENTS, READONLY, EXCLUDE, GROUP, LINK_ONCE_DISCARD
  3 .rodata.str1.1.??_C@_0BE@LOIBOMCM@Thisstringmightwork?$AA@ 00000014  00000000  00000000  00000088  2**0
                  CONTENTS, ALLOC, LOAD, READONLY, DATA
  4 .data.mightWork 00000004  00000000  00000000  000000a0  2**3
                  CONTENTS, ALLOC, LOAD, RELOC, DATA
  5 .bss.printFunc 00000004  00000000  00000000  000000a8  2**3
                  ALLOC
  6 .group        00000008  00000000  00000000  00000130  2**2
                  CONTENTS, READONLY, EXCLUDE, GROUP, LINK_ONCE_DISCARD
  7 .rodata.str1.1.??_C@_0N@GCKKGPFP@Good?5enough?6?$AA@ 0000000d  00000000  00000000  000000a8  2**0
                  CONTENTS, ALLOC, LOAD, READONLY, DATA
  8 .group        00000008  00000000  00000000  00000138  2**2
                  CONTENTS, READONLY, EXCLUDE, GROUP, LINK_ONCE_DISCARD
  9 .rodata.str1.1.??_C@_0BG@IJFEJMFI@Thisstringdoesnotwork?$AA@ 00000016  00000000  00000000  000000b5  2**0
                  CONTENTS, ALLOC, LOAD, READONLY, DATA
 10 .comment      0000001d  00000000  00000000  000000cb  2**0
                  CONTENTS, READONLY
 11 .note.GNU-stack 00000000  00000000  00000000  000000e8  2**0
                  CONTENTS, READONLY
 12 .ARM.attributes 0000003f  00000000  00000000  000000e8  2**0
                  CONTENTS, READONLY
SYMBOL TABLE:
00000000 l    df *ABS*	00000000 simple.c
00000000 l       .group	00000000 ??_C@_0BE@LOIBOMCM@Thisstringmightwork?$AA@
00000000 l       .group	00000000 ??_C@_0BG@IJFEJMFI@Thisstringdoesnotwork?$AA@
00000000 l       .group	00000000 ??_C@_0N@GCKKGPFP@Good?5enough?6?$AA@
00000000 l     O .bss.printFunc	00000004 printFunc
00000000 l    d  .text	00000000 .text
00000000  w    O .rodata.str1.1.??_C@_0BE@LOIBOMCM@Thisstringmightwork?$AA@	00000014 ??_C@_0BE@LOIBOMCM@Thisstringmightwork?$AA@
00000000  w    O .rodata.str1.1.??_C@_0BG@IJFEJMFI@Thisstringdoesnotwork?$AA@	00000016 ??_C@_0BG@IJFEJMFI@Thisstringdoesnotwork?$AA@
00000000  w    O .rodata.str1.1.??_C@_0N@GCKKGPFP@Good?5enough?6?$AA@	0000000d ??_C@_0N@GCKKGPFP@Good?5enough?6?$AA@
00000000         *UND*	00000000 __aeabi_unwind_cpp_pr0
00000000 g     F .text	00000024 addOne
00000024 g     F .text	0000000c getConstHWString
00000000 g     O .data.mightWork	00000004 mightWork
00000030 g     F .text	0000000c setPrintFunc



Disassembly of section .text:

00000000 <addOne>:
   0:	b510      	push	{r4, lr}
   2:	4604      	mov	r4, r0
   4:	4805      	ldr	r0, [pc, #20]	; (1c <addOne+0x1c>)
   6:	4478      	add	r0, pc
   8:	6801      	ldr	r1, [r0, #0]
   a:	4805      	ldr	r0, [pc, #20]	; (20 <addOne+0x20>)
   c:	4478      	add	r0, pc
   e:	6800      	ldr	r0, [r0, #0]
  10:	4788      	blx	r1
  12:	6820      	ldr	r0, [r4, #0]
  14:	3001      	adds	r0, #1
  16:	6020      	str	r0, [r4, #0]
  18:	bd10      	pop	{r4, pc}
  1a:	46c0      	nop			; (mov r8, r8)
  1c:	0012      	movs	r2, r2
			1c: R_ARM_REL32	printFunc
  1e:	0000      	movs	r0, r0
  20:	0010      	movs	r0, r2
			20: R_ARM_GOT_PREL	??_C@_0N@GCKKGPFP@Good?5enough?6?$AA@
	...

00000024 <getConstHWString>:
  24:	4801      	ldr	r0, [pc, #4]	; (2c <getConstHWString+0x8>)
  26:	4478      	add	r0, pc
  28:	6800      	ldr	r0, [r0, #0]
  2a:	4770      	bx	lr
  2c:	00000002 	andeq	r0, r0, r2
			2c: R_ARM_GOT_PREL	??_C@_0BG@IJFEJMFI@Thisstringdoesnotwork?$AA@

00000030 <setPrintFunc>:
  30:	4901      	ldr	r1, [pc, #4]	; (38 <setPrintFunc+0x8>)
  32:	4479      	add	r1, pc
  34:	6008      	str	r0, [r1, #0]
  36:	4770      	bx	lr
  38:	00000002 	andeq	r0, r0, r2
			38: R_ARM_REL32	printFunc

Disassembly of section .group:

00000000 <??_C@_0BE@LOIBOMCM@Thisstringmightwork?$AA@>:
   0:	00000001 	andeq	r0, r0, r1
   4:	00000007 	andeq	r0, r0, r7

Disassembly of section .group:

00000000 <??_C@_0N@GCKKGPFP@Good?5enough?6?$AA@>:
   0:	00000001 	andeq	r0, r0, r1
   4:	0000000c 	andeq	r0, r0, ip

Disassembly of section .group:

00000000 <??_C@_0BG@IJFEJMFI@Thisstringdoesnotwork?$AA@>:
   0:	00000001 	andeq	r0, r0, r1
   4:	0000000e 	andeq	r0, r0, lr
